

Microchip MPLAB XC8 Assembler V2.46 build 20240104201356 
                                                                                               Fri Apr 26 19:58:23 2024

Microchip MPLAB XC8 C Compiler v2.46 (Free license) build 20240104201356 Og1 
     1                           	processor	16F873A
     2                           	pagewidth 120
     3                           	opt	flic
     4                           	psect	strings,global,class=STRING,delta=2,noexec
     5                           	psect	cinit,global,class=CODE,merge=1,delta=2
     6                           	psect	bssBANK0,global,class=BANK0,space=1,delta=1,noexec
     7                           	psect	bssBANK1,global,class=BANK1,space=1,delta=1,noexec
     8                           	psect	clrtext,global,class=CODE,delta=2
     9                           	psect	cstackBANK1,global,class=BANK1,space=1,delta=1,noexec
    10                           	psect	cstackCOMMON,global,class=COMMON,space=1,delta=1,noexec
    11                           	psect	cstackBANK0,global,class=BANK0,space=1,delta=1,noexec
    12                           	psect	maintext,global,class=CODE,split=1,delta=2
    13                           	psect	text1,local,class=CODE,merge=1,delta=2,group=2
    14                           	psect	text2,local,class=CODE,merge=1,delta=2,group=2
    15                           	psect	text3,local,class=CODE,merge=1,delta=2,group=1
    16                           	psect	text4,local,class=CODE,merge=1,delta=2
    17                           	psect	text5,local,class=CODE,merge=1,delta=2
    18                           	psect	text6,local,class=CODE,merge=1,delta=2
    19                           	psect	text7,local,class=CODE,merge=1,delta=2
    20                           	psect	text8,local,class=CODE,merge=1,delta=2
    21                           	psect	text9,local,class=CODE,merge=1,delta=2
    22                           	psect	text10,local,class=CODE,merge=1,delta=2
    23                           	psect	text11,local,class=CODE,merge=1,delta=2
    24                           	psect	text12,local,class=CODE,merge=1,delta=2
    25                           	psect	text13,local,class=CODE,merge=1,delta=2
    26                           	psect	text14,local,class=CODE,merge=1,delta=2
    27                           	psect	text15,local,class=CODE,merge=1,delta=2
    28                           	psect	text16,local,class=CODE,merge=1,delta=2
    29                           	psect	text17,local,class=CODE,merge=1,delta=2
    30                           	psect	text18,local,class=CODE,merge=1,delta=2
    31                           	psect	text19,local,class=CODE,merge=1,delta=2
    32                           	psect	text20,local,class=CODE,merge=1,delta=2,group=1
    33                           	psect	text21,local,class=CODE,merge=1,delta=2
    34                           	psect	intentry,global,class=CODE,delta=2
    35                           	psect	text22,local,class=CODE,merge=1,delta=2
    36                           	psect	text23,local,class=CODE,merge=1,delta=2
    37                           	psect	text24,local,class=CODE,merge=1,delta=2
    38                           	psect	text25,local,class=CODE,merge=1,delta=2
    39                           	psect	text26,local,class=CODE,merge=1,delta=2
    40                           	psect	text27,local,class=CODE,merge=1,delta=2
    41                           	psect	text28,local,class=CODE,merge=1,delta=2
    42                           	psect	text29,local,class=CODE,merge=1,delta=2
    43                           	psect	text30,local,class=CODE,merge=1,delta=2
    44                           	psect	config,global,abs,ovrld,class=CONFIG,space=4,delta=2,noexec
    45                           	dabs	1,0x7E,2
    46     0000                     
    47                           ; Generated 12/10/2023 GMT
    48                           ; 
    49                           ; Copyright © 2023, Microchip Technology Inc. and its subsidiaries ("Microchip")
    50                           ; All rights reserved.
    51                           ; 
    52                           ; This software is developed by Microchip Technology Inc. and its subsidiaries ("Microch
      +                          ip").
    53                           ; 
    54                           ; Redistribution and use in source and binary forms, with or without modification, are
    55                           ; permitted provided that the following conditions are met:
    56                           ; 
    57                           ;     1. Redistributions of source code must retain the above copyright notice, this lis
      +                          t of
    58                           ;        conditions and the following disclaimer.
    59                           ; 
    60                           ;     2. Redistributions in binary form must reproduce the above copyright notice, this 
      +                          list
    61                           ;        of conditions and the following disclaimer in the documentation and/or other
    62                           ;        materials provided with the distribution. Publication is not required when
    63                           ;        this file is used in an embedded application.
    64                           ; 
    65                           ;     3. Microchip's name may not be used to endorse or promote products derived from th
      +                          is
    66                           ;        software without specific prior written permission.
    67                           ; 
    68                           ; THIS SOFTWARE IS PROVIDED BY MICROCHIP "AS IS" AND ANY EXPRESS OR IMPLIED WARRANTIES,
    69                           ; INCLUDING, BUT NOT LIMITED TO, THE IMPLIED WARRANTIES OF MERCHANTABILITY AND FITNESS F
      +                          OR
    70                           ; PURPOSE ARE DISCLAIMED.  IN NO EVENT SHALL MICROCHIP BE LIABLE FOR ANY DIRECT, INDIREC
      +                          T,
    71                           ; INCIDENTAL, SPECIAL, EXEMPLARY, OR CONSEQUENTIAL DAMAGES (INCLUDING BUT NOT LIMITED TO
    72                           ; PROCUREMENT OF SUBSTITUTE GOODS OR SERVICES; LOSS OF USE, DATA OR PROFITS; OR BUSINESS
    73                           ; INTERRUPTION) HOWSOEVER CAUSED AND ON ANY THEORY OF LIABILITY, WHETHER IN CONTRACT, ST
      +                          RICT
    74                           ; LIABILITY, OR TORT (INCLUDING NEGLIGENCE OR OTHERWISE) ARISING IN ANY WAY OUT OF THE U
      +                          SE OF
    75                           ; THIS SOFTWARE, EVEN IF ADVISED OF THE POSSIBILITY OF SUCH DAMAGE.
    76                           ; 
    77                           ; 
    78                           ; Code-generator required, PIC16F873A Definitions
    79                           ; 
    80                           ; SFR Addresses
    81     0000                     	;# 
    82     0001                     	;# 
    83     0002                     	;# 
    84     0003                     	;# 
    85     0004                     	;# 
    86     0005                     	;# 
    87     0006                     	;# 
    88     0007                     	;# 
    89     000A                     	;# 
    90     000B                     	;# 
    91     000C                     	;# 
    92     000D                     	;# 
    93     000E                     	;# 
    94     000E                     	;# 
    95     000F                     	;# 
    96     0010                     	;# 
    97     0011                     	;# 
    98     0012                     	;# 
    99     0013                     	;# 
   100     0014                     	;# 
   101     0015                     	;# 
   102     0015                     	;# 
   103     0016                     	;# 
   104     0017                     	;# 
   105     0018                     	;# 
   106     0019                     	;# 
   107     001A                     	;# 
   108     001B                     	;# 
   109     001B                     	;# 
   110     001C                     	;# 
   111     001D                     	;# 
   112     001E                     	;# 
   113     001F                     	;# 
   114     0081                     	;# 
   115     0085                     	;# 
   116     0086                     	;# 
   117     0087                     	;# 
   118     008C                     	;# 
   119     008D                     	;# 
   120     008E                     	;# 
   121     0091                     	;# 
   122     0092                     	;# 
   123     0093                     	;# 
   124     0094                     	;# 
   125     0098                     	;# 
   126     0099                     	;# 
   127     009C                     	;# 
   128     009D                     	;# 
   129     009E                     	;# 
   130     009F                     	;# 
   131     010C                     	;# 
   132     010D                     	;# 
   133     010E                     	;# 
   134     010F                     	;# 
   135     018C                     	;# 
   136     018D                     	;# 
   137     0000                     	;# 
   138     0001                     	;# 
   139     0002                     	;# 
   140     0003                     	;# 
   141     0004                     	;# 
   142     0005                     	;# 
   143     0006                     	;# 
   144     0007                     	;# 
   145     000A                     	;# 
   146     000B                     	;# 
   147     000C                     	;# 
   148     000D                     	;# 
   149     000E                     	;# 
   150     000E                     	;# 
   151     000F                     	;# 
   152     0010                     	;# 
   153     0011                     	;# 
   154     0012                     	;# 
   155     0013                     	;# 
   156     0014                     	;# 
   157     0015                     	;# 
   158     0015                     	;# 
   159     0016                     	;# 
   160     0017                     	;# 
   161     0018                     	;# 
   162     0019                     	;# 
   163     001A                     	;# 
   164     001B                     	;# 
   165     001B                     	;# 
   166     001C                     	;# 
   167     001D                     	;# 
   168     001E                     	;# 
   169     001F                     	;# 
   170     0081                     	;# 
   171     0085                     	;# 
   172     0086                     	;# 
   173     0087                     	;# 
   174     008C                     	;# 
   175     008D                     	;# 
   176     008E                     	;# 
   177     0091                     	;# 
   178     0092                     	;# 
   179     0093                     	;# 
   180     0094                     	;# 
   181     0098                     	;# 
   182     0099                     	;# 
   183     009C                     	;# 
   184     009D                     	;# 
   185     009E                     	;# 
   186     009F                     	;# 
   187     010C                     	;# 
   188     010D                     	;# 
   189     010E                     	;# 
   190     010F                     	;# 
   191     018C                     	;# 
   192     018D                     	;# 
   193                           
   194                           	psect	strings
   195     0419                     __pstrings:
   196     0419                     stringtab:
   197     0419                     __stringtab:
   198                           
   199                           ;	String table - string pointers are 1 byte each
   200     0419  1BFF               	btfsc	btemp+1,7
   201     041A  2C23               	ljmp	stringcode
   202     041B  1383               	bcf	3,7
   203     041C  187F               	btfsc	btemp+1,0
   204     041D  1783               	bsf	3,7
   205     041E  0800               	movf	0,w
   206     041F  0A84               	incf	4,f
   207     0420  1903               	skipnz
   208     0421  0AFF               	incf	btemp+1,f
   209     0422  0008               	return
   210     0423                     stringcode:
   211     0423                     stringdir:
   212     0423  3004               	movlw	high stringdir
   213     0424  008A               	movwf	10
   214     0425  0804               	movf	4,w
   215     0426  0A84               	incf	4,f
   216     0427  0782               	addwf	2,f
   217     0428                     __stringbase:
   218     0428  3400               	retlw	0
   219     0429                     __end_of__stringtab:
   220     0429                     _teclas:
   221     0429  3437               	retlw	55
   222     042A  3438               	retlw	56
   223     042B  3439               	retlw	57
   224     042C  342F               	retlw	47
   225     042D  3434               	retlw	52
   226     042E  3435               	retlw	53
   227     042F  3436               	retlw	54
   228     0430  3458               	retlw	88
   229     0431  3431               	retlw	49
   230     0432  3432               	retlw	50
   231     0433  3433               	retlw	51
   232     0434  342D               	retlw	45
   233     0435  3443               	retlw	67
   234     0436  3430               	retlw	48
   235     0437  343D               	retlw	61
   236     0438  342B               	retlw	43
   237     0439                     __end_of_teclas:
   238     0014                     _SSPCONbits	set	20
   239     0013                     _SSPBUF	set	19
   240     0014                     _SSPCON	set	20
   241     0005                     _PORTAbits	set	5
   242     0006                     _PORTB	set	6
   243     0063                     _SSPIF	set	99
   244     005F                     _GIE	set	95
   245     005E                     _PEIE	set	94
   246     002A                     _RA2	set	42
   247     0029                     _RA1	set	41
   248     0028                     _RA0	set	40
   249     0094                     _SSPSTATbits	set	148
   250     0091                     _SSPCON2	set	145
   251     0094                     _SSPSTAT	set	148
   252     0093                     _SSPADD	set	147
   253     0085                     _TRISAbits	set	133
   254     0086                     _TRISB	set	134
   255     0085                     _TRISA	set	133
   256     009F                     _ADCON1	set	159
   257     0463                     _SSPIE	set	1123
   258     048A                     _PEN	set	1162
   259     0488                     _SEN	set	1160
   260     043C                     _TRISC4	set	1084
   261     043B                     _TRISC3	set	1083
   262     0439                     STR_2:
   263     0439  3461               	retlw	97	;'a'
   264     043A  346C               	retlw	108	;'l'
   265     043B  3420               	retlw	32	;' '
   266     043C  3465               	retlw	101	;'e'
   267     043D  3473               	retlw	115	;'s'
   268     043E  3463               	retlw	99	;'c'
   269     043F  346C               	retlw	108	;'l'
   270     0440  3461               	retlw	97	;'a'
   271     0441  3476               	retlw	118	;'v'
   272     0442  346F               	retlw	111	;'o'
   273     0443  3420               	retlw	32	;' '
   274     0444  342E               	retlw	46	;'.'
   275     0445  3420               	retlw	32	;' '
   276     0446  342E               	retlw	46	;'.'
   277     0447  3420               	retlw	32	;' '
   278     0448  342E               	retlw	46	;'.'
   279     0449  3400               	retlw	0
   280     044A                     STR_4:
   281     044A  3464               	retlw	100	;'d'
   282     044B  3465               	retlw	101	;'e'
   283     044C  346C               	retlw	108	;'l'
   284     044D  3420               	retlw	32	;' '
   285     044E  3465               	retlw	101	;'e'
   286     044F  3473               	retlw	115	;'s'
   287     0450  3463               	retlw	99	;'c'
   288     0451  346C               	retlw	108	;'l'
   289     0452  3461               	retlw	97	;'a'
   290     0453  3476               	retlw	118	;'v'
   291     0454  346F               	retlw	111	;'o'
   292     0455  3420               	retlw	32	;' '
   293     0456  342E               	retlw	46	;'.'
   294     0457  342E               	retlw	46	;'.'
   295     0458  342E               	retlw	46	;'.'
   296     0459  3400               	retlw	0
   297     045A                     STR_6:
   298     045A  3470               	retlw	112	;'p'
   299     045B  3461               	retlw	97	;'a'
   300     045C  3472               	retlw	114	;'r'
   301     045D  3461               	retlw	97	;'a'
   302     045E  3420               	retlw	32	;' '
   303     045F  3465               	retlw	101	;'e'
   304     0460  3473               	retlw	115	;'s'
   305     0461  3463               	retlw	99	;'c'
   306     0462  346C               	retlw	108	;'l'
   307     0463  3461               	retlw	97	;'a'
   308     0464  3476               	retlw	118	;'v'
   309     0465  346F               	retlw	111	;'o'
   310     0466  342E               	retlw	46	;'.'
   311     0467  342E               	retlw	46	;'.'
   312     0468  342E               	retlw	46	;'.'
   313     0469  3400               	retlw	0
   314     046A                     STR_1:
   315     046A  344D               	retlw	77	;'M'
   316     046B  3465               	retlw	101	;'e'
   317     046C  346E               	retlw	110	;'n'
   318     046D  3473               	retlw	115	;'s'
   319     046E  3461               	retlw	97	;'a'
   320     046F  346A               	retlw	106	;'j'
   321     0470  3465               	retlw	101	;'e'
   322     0471  3420               	retlw	32	;' '
   323     0472  3465               	retlw	101	;'e'
   324     0473  346E               	retlw	110	;'n'
   325     0474  3476               	retlw	118	;'v'
   326     0475  3469               	retlw	105	;'i'
   327     0476  3461               	retlw	97	;'a'
   328     0477  3464               	retlw	100	;'d'
   329     0478  346F               	retlw	111	;'o'
   330     0479  3400               	retlw	0
   331     047A                     STR_3:
   332     047A  3445               	retlw	69	;'E'
   333     047B  3473               	retlw	115	;'s'
   334     047C  3470               	retlw	112	;'p'
   335     047D  3465               	retlw	101	;'e'
   336     047E  3472               	retlw	114	;'r'
   337     047F  3461               	retlw	97	;'a'
   338     0480  346E               	retlw	110	;'n'
   339     0481  3464               	retlw	100	;'d'
   340     0482  346F               	retlw	111	;'o'
   341     0483  3420               	retlw	32	;' '
   342     0484  3472               	retlw	114	;'r'
   343     0485  3465               	retlw	101	;'e'
   344     0486  3473               	retlw	115	;'s'
   345     0487  342D               	retlw	45	;'-'
   346     0488  3400               	retlw	0
   347     0489                     STR_5:
   348     0489  3445               	retlw	69	;'E'
   349     048A  3473               	retlw	115	;'s'
   350     048B  3463               	retlw	99	;'c'
   351     048C  3472               	retlw	114	;'r'
   352     048D  3469               	retlw	105	;'i'
   353     048E  3462               	retlw	98	;'b'
   354     048F  3461               	retlw	97	;'a'
   355     0490  3420               	retlw	32	;' '
   356     0491  3472               	retlw	114	;'r'
   357     0492  3465               	retlw	101	;'e'
   358     0493  3473               	retlw	115	;'s'
   359     0494  342D               	retlw	45	;'-'
   360     0495  3400               	retlw	0
   361                           
   362                           	psect	cinit
   363     0013                     start_initialization:	
   364                           ; #config settings
   365                           
   366     0013                     __initialization:
   367                           
   368                           ; Clear objects allocated to BANK0
   369     0013  1383               	bcf	3,7	;select IRP bank0
   370     0014  304C               	movlw	low __pbssBANK0
   371     0015  0084               	movwf	4
   372     0016  305E               	movlw	low (__pbssBANK0+18)
   373     0017  158A  27D9  118A   	fcall	clear_ram0
   374                           
   375                           ; Clear objects allocated to BANK1
   376     001A  30A0               	movlw	low __pbssBANK1
   377     001B  0084               	movwf	4
   378     001C  30BA               	movlw	low (__pbssBANK1+26)
   379     001D  158A  27D9  118A   	fcall	clear_ram0
   380     0020                     end_of_initialization:	
   381                           ;End of C runtime variable initialization code
   382                           
   383     0020                     __end_of__initialization:
   384     0020  0183               	clrf	3
   385     0021  118A  2823         	ljmp	_main	;jump to C main() function
   386                           
   387                           	psect	bssBANK0
   388     004C                     __pbssBANK0:
   389     004C                     ISR@index:
   390     004C                     	ds	2
   391     004E                     ISR@receiveBuffer:
   392     004E                     	ds	16
   393                           
   394                           	psect	bssBANK1
   395     00A0                     __pbssBANK1:
   396     00A0                     _asciiDigits:
   397     00A0                     	ds	1
   398     00A1                     _asciiMode:
   399     00A1                     	ds	1
   400     00A2                     _charCount:
   401     00A2                     	ds	1
   402     00A3                     _cursorPosition:
   403     00A3                     	ds	1
   404     00A4                     _i2c_role:
   405     00A4                     	ds	1
   406     00A5                     _displayString:
   407     00A5                     	ds	17
   408     00B6                     _asciiValue:
   409     00B6                     	ds	4
   410                           
   411                           	psect	clrtext
   412     0FD9                     clear_ram0:	
   413                           ;	Called with FSR containing the base address, and
   414                           ;	W with the last address+1
   415                           
   416     0FD9  0064               	clrwdt	;clear the watchdog before getting into this loop
   417     0FDA                     clrloop0:
   418     0FDA  0180               	clrf	0	;clear RAM location pointed to by FSR
   419     0FDB  0A84               	incf	4,f	;increment pointer
   420     0FDC  0604               	xorwf	4,w	;XOR with final address
   421     0FDD  1903               	btfsc	3,2	;have we reached the end yet?
   422     0FDE  3400               	retlw	0	;all done for this memory range, return
   423     0FDF  0604               	xorwf	4,w	;XOR again to restore value
   424     0FE0  2FDA               	goto	clrloop0	;do the next byte
   425                           
   426                           	psect	cstackBANK1
   427     00BA                     __pcstackBANK1:
   428     00BA                     ?_I2C_Master_Init:
   429     00BA                     I2C_Master_Init@c:	
   430                           ; 1 bytes @ 0x0
   431                           
   432                           
   433                           ; 4 bytes @ 0x0
   434     00BA                     	ds	4
   435     00BE                     ??_I2C_Master_Init:
   436                           
   437                           ; 1 bytes @ 0x4
   438     00BE                     	ds	4
   439     00C2                     ??_main:
   440                           
   441                           ; 1 bytes @ 0x8
   442     00C2                     	ds	3
   443     00C5                     main@i:
   444                           
   445                           ; 2 bytes @ 0xB
   446     00C5                     	ds	2
   447     00C7                     main@asciiCode:
   448                           
   449                           ; 2 bytes @ 0xD
   450     00C7                     	ds	2
   451     00C9                     main@i_288:
   452                           
   453                           ; 2 bytes @ 0xF
   454     00C9                     	ds	2
   455     00CB                     main@i_289:
   456                           
   457                           ; 2 bytes @ 0x11
   458     00CB                     	ds	2
   459     00CD                     main@i_290:
   460                           
   461                           ; 2 bytes @ 0x13
   462     00CD                     	ds	2
   463     00CF                     main@key:
   464                           
   465                           ; 1 bytes @ 0x15
   466     00CF                     	ds	1
   467                           
   468                           	psect	cstackCOMMON
   469     0000                     __pcstackCOMMON:
   470     0000                     ??_Keyboard_init:
   471     0000                     ??_Prepare_Keypad_Pins:	
   472                           ; 1 bytes @ 0x0
   473                           
   474     0000                     ??_I2C_Master_Start:	
   475                           ; 1 bytes @ 0x0
   476                           
   477     0000                     ??_I2C_Master_Write:	
   478                           ; 1 bytes @ 0x0
   479                           
   480     0000                     ??_I2C_Master_Stop:	
   481                           ; 1 bytes @ 0x0
   482                           
   483     0000                     ??_Prepare_LCD_Pins:	
   484                           ; 1 bytes @ 0x0
   485                           
   486     0000                     ??_LCD_setCursor:	
   487                           ; 1 bytes @ 0x0
   488                           
   489     0000                     ??_LCD_print:	
   490                           ; 1 bytes @ 0x0
   491                           
   492     0000                     ??_memset:	
   493                           ; 1 bytes @ 0x0
   494                           
   495     0000                     ??_I2C_Slave_Init:	
   496                           ; 1 bytes @ 0x0
   497                           
   498     0000                     ??_I2C_Master_Wait:	
   499                           ; 1 bytes @ 0x0
   500                           
   501     0000                     ??___wmul:	
   502                           ; 1 bytes @ 0x0
   503                           
   504     0000                     ??i1_LCD_setCursor:	
   505                           ; 1 bytes @ 0x0
   506                           
   507     0000                     ??i1_LCD_print:	
   508                           ; 1 bytes @ 0x0
   509                           
   510     0000                     ??i1_Keyboard_init:	
   511                           ; 1 bytes @ 0x0
   512                           
   513     0000                     ??i1_Prepare_LCD_Pins:	
   514                           ; 1 bytes @ 0x0
   515                           
   516                           
   517                           	psect	cstackBANK0
   518     0020                     __pcstackBANK0:	
   519                           ; 1 bytes @ 0x0
   520                           
   521     0020                     ?_LCD_init:
   522     0020                     ?_Keyboard_init:	
   523                           ; 1 bytes @ 0x0
   524                           
   525     0020                     ?_Prepare_Keypad_Pins:	
   526                           ; 1 bytes @ 0x0
   527                           
   528     0020                     ?_Read_Keypad:	
   529                           ; 1 bytes @ 0x0
   530                           
   531     0020                     ?_I2C_Master_Start:	
   532                           ; 1 bytes @ 0x0
   533                           
   534     0020                     ?_I2C_Master_Stop:	
   535                           ; 1 bytes @ 0x0
   536                           
   537     0020                     ?_Prepare_LCD_Pins:	
   538                           ; 1 bytes @ 0x0
   539                           
   540     0020                     ?_LCD_clear:	
   541                           ; 1 bytes @ 0x0
   542                           
   543     0020                     ?_I2C_Slave_Init:	
   544                           ; 1 bytes @ 0x0
   545                           
   546     0020                     ?_main:	
   547                           ; 1 bytes @ 0x0
   548                           
   549     0020                     ?_LCD_command:	
   550                           ; 1 bytes @ 0x0
   551                           
   552     0020                     ?_LCD_data:	
   553                           ; 1 bytes @ 0x0
   554                           
   555     0020                     ?_I2C_Master_Wait:	
   556                           ; 1 bytes @ 0x0
   557                           
   558     0020                     ?_ISR:	
   559                           ; 1 bytes @ 0x0
   560                           
   561     0020                     ?i1_LCD_command:	
   562                           ; 1 bytes @ 0x0
   563                           
   564     0020                     ??i1_LCD_command:	
   565                           ; 1 bytes @ 0x0
   566                           
   567     0020                     ?i1_LCD_data:	
   568                           ; 1 bytes @ 0x0
   569                           
   570     0020                     ??i1_LCD_data:	
   571                           ; 1 bytes @ 0x0
   572                           
   573     0020                     ?i1_LCD_clear:	
   574                           ; 1 bytes @ 0x0
   575                           
   576     0020                     ?i1_Keyboard_init:	
   577                           ; 1 bytes @ 0x0
   578                           
   579     0020                     ?i1_Prepare_LCD_Pins:	
   580                           ; 1 bytes @ 0x0
   581                           
   582     0020                     ?i1___lldiv:	
   583                           ; 1 bytes @ 0x0
   584                           
   585     0020                     i1___lldiv@divisor:	
   586                           ; 4 bytes @ 0x0
   587                           
   588                           
   589                           ; 4 bytes @ 0x0
   590     0020                     	ds	2
   591     0022                     i1LCD_command@command:
   592     0022                     i1LCD_data@data:	
   593                           ; 1 bytes @ 0x2
   594                           
   595                           
   596                           ; 1 bytes @ 0x2
   597     0022                     	ds	1
   598     0023                     ??i1_LCD_clear:
   599     0023                     ?i1_LCD_setCursor:	
   600                           ; 1 bytes @ 0x3
   601                           
   602     0023                     ?i1_LCD_print:	
   603                           ; 1 bytes @ 0x3
   604                           
   605     0023                     i1LCD_setCursor@column:	
   606                           ; 1 bytes @ 0x3
   607                           
   608     0023                     i1LCD_print@string:	
   609                           ; 1 bytes @ 0x3
   610                           
   611                           
   612                           ; 2 bytes @ 0x3
   613     0023                     	ds	1
   614     0024                     i1LCD_setCursor@row:
   615     0024                     i1___lldiv@dividend:	
   616                           ; 1 bytes @ 0x4
   617                           
   618                           
   619                           ; 4 bytes @ 0x4
   620     0024                     	ds	1
   621     0025                     i1_LCD_setCursor$302:
   622                           
   623                           ; 2 bytes @ 0x5
   624     0025                     	ds	2
   625     0027                     i1LCD_setCursor@position:
   626                           
   627                           ; 1 bytes @ 0x7
   628     0027                     	ds	1
   629     0028                     ??i1___lldiv:
   630                           
   631                           ; 1 bytes @ 0x8
   632     0028                     	ds	1
   633     0029                     i1___lldiv@quotient:
   634                           
   635                           ; 4 bytes @ 0x9
   636     0029                     	ds	4
   637     002D                     i1___lldiv@counter:
   638                           
   639                           ; 1 bytes @ 0xD
   640     002D                     	ds	1
   641     002E                     ?i1_I2C_Master_Init:
   642     002E                     i1I2C_Master_Init@c:	
   643                           ; 1 bytes @ 0xE
   644                           
   645                           
   646                           ; 4 bytes @ 0xE
   647     002E                     	ds	4
   648     0032                     ??i1_I2C_Master_Init:
   649                           
   650                           ; 1 bytes @ 0x12
   651     0032                     	ds	4
   652     0036                     ??_ISR:
   653                           
   654                           ; 1 bytes @ 0x16
   655     0036                     	ds	7
   656     003D                     ISR@temp:
   657                           
   658                           ; 1 bytes @ 0x1D
   659     003D                     	ds	1
   660     003E                     ??_Read_Keypad:
   661     003E                     ?_I2C_Master_Write:	
   662                           ; 1 bytes @ 0x1E
   663                           
   664     003E                     ?_memset:	
   665                           ; 1 bytes @ 0x1E
   666                           
   667     003E                     ??_LCD_command:	
   668                           ; 1 bytes @ 0x1E
   669                           
   670     003E                     ??_LCD_data:	
   671                           ; 1 bytes @ 0x1E
   672                           
   673     003E                     ?___wmul:	
   674                           ; 1 bytes @ 0x1E
   675                           
   676     003E                     ?___lldiv:	
   677                           ; 2 bytes @ 0x1E
   678                           
   679     003E                     I2C_Slave_Init@address:	
   680                           ; 4 bytes @ 0x1E
   681                           
   682     003E                     I2C_Master_Write@d:	
   683                           ; 1 bytes @ 0x1E
   684                           
   685     003E                     ___wmul@multiplier:	
   686                           ; 2 bytes @ 0x1E
   687                           
   688     003E                     memset@c:	
   689                           ; 2 bytes @ 0x1E
   690                           
   691     003E                     ___lldiv@divisor:	
   692                           ; 2 bytes @ 0x1E
   693                           
   694                           
   695                           ; 4 bytes @ 0x1E
   696     003E                     	ds	2
   697     0040                     LCD_command@command:
   698     0040                     LCD_data@data:	
   699                           ; 1 bytes @ 0x20
   700                           
   701     0040                     Read_Keypad@row:	
   702                           ; 1 bytes @ 0x20
   703                           
   704     0040                     ___wmul@multiplicand:	
   705                           ; 2 bytes @ 0x20
   706                           
   707     0040                     memset@n:	
   708                           ; 2 bytes @ 0x20
   709                           
   710                           
   711                           ; 2 bytes @ 0x20
   712     0040                     	ds	1
   713     0041                     ??_LCD_init:
   714     0041                     ??_LCD_clear:	
   715                           ; 1 bytes @ 0x21
   716                           
   717     0041                     ?_LCD_setCursor:	
   718                           ; 1 bytes @ 0x21
   719                           
   720     0041                     ?_LCD_print:	
   721                           ; 1 bytes @ 0x21
   722                           
   723     0041                     LCD_setCursor@column:	
   724                           ; 1 bytes @ 0x21
   725                           
   726     0041                     LCD_print@string:	
   727                           ; 1 bytes @ 0x21
   728                           
   729                           
   730                           ; 2 bytes @ 0x21
   731     0041                     	ds	1
   732     0042                     LCD_setCursor@row:
   733     0042                     memset@dest:	
   734                           ; 1 bytes @ 0x22
   735                           
   736     0042                     Read_Keypad@col:	
   737                           ; 1 bytes @ 0x22
   738                           
   739     0042                     ___wmul@product:	
   740                           ; 2 bytes @ 0x22
   741                           
   742     0042                     ___lldiv@dividend:	
   743                           ; 2 bytes @ 0x22
   744                           
   745                           
   746                           ; 4 bytes @ 0x22
   747     0042                     	ds	1
   748     0043                     memset@p:
   749     0043                     _LCD_setCursor$302:	
   750                           ; 1 bytes @ 0x23
   751                           
   752                           
   753                           ; 2 bytes @ 0x23
   754     0043                     	ds	1
   755     0044                     ?_atoi:
   756                           
   757                           ; 2 bytes @ 0x24
   758     0044                     	ds	1
   759     0045                     LCD_setCursor@position:
   760                           
   761                           ; 1 bytes @ 0x25
   762     0045                     	ds	1
   763     0046                     ??_atoi:
   764     0046                     ??___lldiv:	
   765                           ; 1 bytes @ 0x26
   766                           
   767                           
   768                           ; 1 bytes @ 0x26
   769     0046                     	ds	1
   770     0047                     ___lldiv@quotient:
   771                           
   772                           ; 4 bytes @ 0x27
   773     0047                     	ds	1
   774     0048                     atoi@neg:
   775                           
   776                           ; 1 bytes @ 0x28
   777     0048                     	ds	1
   778     0049                     atoi@n:
   779                           
   780                           ; 2 bytes @ 0x29
   781     0049                     	ds	2
   782     004B                     ___lldiv@counter:
   783     004B                     atoi@s:	
   784                           ; 1 bytes @ 0x2B
   785                           
   786                           
   787                           ; 1 bytes @ 0x2B
   788     004B                     	ds	1
   789                           
   790                           	psect	maintext
   791     0023                     __pmaintext:	
   792 ;;
   793 ;;Main: autosize = 0, tempsize = 3, incstack = 0, save=0
   794 ;;
   795 ;; *************** function _main *****************
   796 ;; Defined at:
   797 ;;		line 95 in file "env_maestro.c"
   798 ;; Parameters:    Size  Location     Type
   799 ;;		None
   800 ;; Auto vars:     Size  Location     Type
   801 ;;  i               2   19[BANK1 ] int 
   802 ;;  i               2   17[BANK1 ] int 
   803 ;;  i               2   15[BANK1 ] int 
   804 ;;  i               2   11[BANK1 ] int 
   805 ;;  asciiCode       2   13[BANK1 ] int 
   806 ;;  key             1   21[BANK1 ] unsigned char 
   807 ;; Return value:  Size  Location     Type
   808 ;;                  1    wreg      void 
   809 ;; Registers used:
   810 ;;		wreg, fsr0l, fsr0h, status,2, status,0, btemp+1, pclath, cstack
   811 ;; Tracked objects:
   812 ;;		On entry : B00/0
   813 ;;		On exit  : 0/0
   814 ;;		Unchanged: 0/0
   815 ;; Data sizes:     COMMON   BANK0   BANK1
   816 ;;      Params:         0       0       0
   817 ;;      Locals:         0       0      11
   818 ;;      Temps:          0       0       3
   819 ;;      Totals:         0       0      14
   820 ;;Total ram usage:       14 bytes
   821 ;; Hardware stack levels required when called: 5
   822 ;; This function calls:
   823 ;;		_I2C_Master_Init
   824 ;;		_I2C_Master_Start
   825 ;;		_I2C_Master_Stop
   826 ;;		_I2C_Master_Write
   827 ;;		_I2C_Slave_Init
   828 ;;		_Keyboard_init
   829 ;;		_LCD_clear
   830 ;;		_LCD_init
   831 ;;		_LCD_print
   832 ;;		_LCD_setCursor
   833 ;;		_Prepare_Keypad_Pins
   834 ;;		_Prepare_LCD_Pins
   835 ;;		_Read_Keypad
   836 ;;		_atoi
   837 ;;		_memset
   838 ;; This function is called by:
   839 ;;		Startup code after reset
   840 ;; This function uses a non-reentrant model
   841 ;;
   842                           
   843     0023                     _main:	
   844                           ;psect for function _main
   845                           
   846     0023                     l1919:	
   847                           ;incstack = 0
   848                           ; Regs used in _main: [wreg-fsr0h+status,2+status,0+btemp+1+pclath+cstack]
   849                           
   850                           
   851                           ;env_maestro.c: 96:     LCD_init();
   852     0023  118A  25DE  118A   	fcall	_LCD_init
   853                           
   854                           ;env_maestro.c: 97:     Keyboard_init();
   855     0026  158A  27F5  118A   	fcall	_Keyboard_init
   856     0029                     l1921:
   857                           
   858                           ;env_maestro.c: 98:     I2C_Master_Init(100000);
   859     0029  3000               	movlw	0
   860     002A  1683               	bsf	3,5	;RP0=1, select bank1
   861     002B  1303               	bcf	3,6	;RP1=0, select bank1
   862     002C  00BD               	movwf	(I2C_Master_Init@c+3)^(0+128)
   863     002D  3001               	movlw	1
   864     002E  00BC               	movwf	(I2C_Master_Init@c+2)^(0+128)
   865     002F  3086               	movlw	134
   866     0030  00BB               	movwf	(I2C_Master_Init@c+1)^(0+128)
   867     0031  30A0               	movlw	160
   868     0032  00BA               	movwf	I2C_Master_Init@c^(0+128)
   869     0033  118A  262B  118A   	fcall	_I2C_Master_Init
   870     0036                     l1923:
   871                           
   872                           ;env_maestro.c: 102:         Prepare_Keypad_Pins();
   873     0036  158A  27E1  118A   	fcall	_Prepare_Keypad_Pins
   874     0039                     l1925:
   875                           
   876                           ;env_maestro.c: 103:         char key = Read_Keypad();
   877     0039  118A  237E  118A   	fcall	_Read_Keypad
   878     003C  1683               	bsf	3,5	;RP0=1, select bank1
   879     003D  1303               	bcf	3,6	;RP1=0, select bank1
   880     003E  00CF               	movwf	main@key^(0+128)
   881     003F                     l1927:
   882                           
   883                           ;env_maestro.c: 105:         if (key == '-') {
   884     003F  302D               	movlw	45
   885     0040  064F               	xorwf	main@key^(0+128),w
   886     0041  1D03               	btfss	3,2
   887     0042  2844               	goto	u1501
   888     0043  2845               	goto	u1500
   889     0044                     u1501:
   890     0044  2904               	goto	l1975
   891     0045                     u1500:
   892     0045                     l1929:
   893                           
   894                           ;env_maestro.c: 107:             if (charCount > 0) {
   895     0045  0822               	movf	_charCount^(0+128),w
   896     0046  1903               	btfsc	3,2
   897     0047  2849               	goto	u1511
   898     0048  284A               	goto	u1510
   899     0049                     u1511:
   900     0049  2A9F               	goto	l2097
   901     004A                     u1510:
   902     004A                     l1931:
   903                           
   904                           ;env_maestro.c: 108:                 I2C_Master_Start();
   905     004A  158A  27C3  118A   	fcall	_I2C_Master_Start
   906                           
   907                           ;env_maestro.c: 109:                 I2C_Master_Write(0x10);
   908     004D  3010               	movlw	16
   909     004E  1283               	bcf	3,5	;RP0=0, select bank0
   910     004F  1303               	bcf	3,6	;RP1=0, select bank0
   911     0050  00BE               	movwf	I2C_Master_Write@d
   912     0051  3000               	movlw	0
   913     0052  00BF               	movwf	I2C_Master_Write@d+1
   914     0053  158A  27D1  118A   	fcall	_I2C_Master_Write
   915     0056                     l1933:
   916                           
   917                           ;env_maestro.c: 110:                 for (int i = 0; i < charCount; i++) {
   918     0056  1683               	bsf	3,5	;RP0=1, select bank1
   919     0057  1303               	bcf	3,6	;RP1=0, select bank1
   920     0058  01C5               	clrf	main@i^(0+128)
   921     0059  01C6               	clrf	(main@i+1)^(0+128)
   922     005A  2879               	goto	l1939
   923     005B                     l1935:
   924                           
   925                           ;env_maestro.c: 111:                     I2C_Master_Write(displayString[i]);
   926     005B  1683               	bsf	3,5	;RP0=1, select bank1
   927     005C  1303               	bcf	3,6	;RP1=0, select bank1
   928     005D  0845               	movf	main@i^(0+128),w
   929     005E  3EA5               	addlw	(low (_displayString| 0))& (0+255)
   930     005F  0084               	movwf	4
   931     0060  1383               	bcf	3,7	;select IRP bank1
   932     0061  0800               	movf	0,w
   933     0062  00C2               	movwf	??_main^(0+128)
   934     0063  01C3               	clrf	(??_main^(0+128)+1)
   935     0064  0842               	movf	??_main^(0+128),w
   936     0065  1283               	bcf	3,5	;RP0=0, select bank0
   937     0066  1303               	bcf	3,6	;RP1=0, select bank0
   938     0067  00BE               	movwf	I2C_Master_Write@d
   939     0068  1683               	bsf	3,5	;RP0=1, select bank1
   940     0069  1303               	bcf	3,6	;RP1=0, select bank1
   941     006A  0843               	movf	(??_main+1)^(0+128),w
   942     006B  1283               	bcf	3,5	;RP0=0, select bank0
   943     006C  1303               	bcf	3,6	;RP1=0, select bank0
   944     006D  00BF               	movwf	I2C_Master_Write@d+1
   945     006E  158A  27D1  118A   	fcall	_I2C_Master_Write
   946     0071                     l1937:
   947                           
   948                           ;env_maestro.c: 112:                 }
   949     0071  3001               	movlw	1
   950     0072  1683               	bsf	3,5	;RP0=1, select bank1
   951     0073  1303               	bcf	3,6	;RP1=0, select bank1
   952     0074  07C5               	addwf	main@i^(0+128),f
   953     0075  1803               	skipnc
   954     0076  0AC6               	incf	(main@i+1)^(0+128),f
   955     0077  3000               	movlw	0
   956     0078  07C6               	addwf	(main@i+1)^(0+128),f
   957     0079                     l1939:
   958     0079  0846               	movf	(main@i+1)^(0+128),w
   959     007A  3A80               	xorlw	128
   960     007B  00C2               	movwf	??_main^(0+128)
   961     007C  3080               	movlw	128
   962     007D  0242               	subwf	??_main^(0+128),w
   963     007E  1D03               	skipz
   964     007F  2882               	goto	u1525
   965     0080  0822               	movf	_charCount^(0+128),w
   966     0081  0245               	subwf	main@i^(0+128),w
   967     0082                     u1525:
   968     0082  1C03               	skipc
   969     0083  2885               	goto	u1521
   970     0084  2886               	goto	u1520
   971     0085                     u1521:
   972     0085  285B               	goto	l1935
   973     0086                     u1520:
   974     0086                     l1941:
   975                           
   976                           ;env_maestro.c: 113:                 I2C_Master_Write('\0');
   977     0086  3000               	movlw	0
   978     0087  1283               	bcf	3,5	;RP0=0, select bank0
   979     0088  1303               	bcf	3,6	;RP1=0, select bank0
   980     0089  00BE               	movwf	I2C_Master_Write@d
   981     008A  00BF               	movwf	I2C_Master_Write@d+1
   982     008B  158A  27D1  118A   	fcall	_I2C_Master_Write
   983                           
   984                           ;env_maestro.c: 114:                 I2C_Master_Stop();
   985     008E  158A  27CA  118A   	fcall	_I2C_Master_Stop
   986     0091                     l1943:
   987                           
   988                           ;env_maestro.c: 115: Prepare_LCD_Pins();
   989     0091  158A  27BF  118A   	fcall	_Prepare_LCD_Pins
   990     0094                     l1945:
   991                           
   992                           ;env_maestro.c: 116:                 LCD_clear();
   993     0094  118A  27D2  118A   	fcall	_LCD_clear
   994     0097                     l1947:
   995                           
   996                           ;env_maestro.c: 117:                 LCD_setCursor(1, 0);
   997     0097  1283               	bcf	3,5	;RP0=0, select bank0
   998     0098  1303               	bcf	3,6	;RP1=0, select bank0
   999     0099  01C1               	clrf	LCD_setCursor@column
  1000     009A  3001               	movlw	1
  1001     009B  118A  272A  118A   	fcall	_LCD_setCursor
  1002     009E                     l1949:
  1003                           
  1004                           ;env_maestro.c: 118:                 Prepare_LCD_Pins();
  1005     009E  158A  27BF  118A   	fcall	_Prepare_LCD_Pins
  1006     00A1                     l1951:
  1007                           
  1008                           ;env_maestro.c: 119:                 LCD_print("Mensaje enviado");
  1009     00A1  3042               	movlw	(low ((STR_1-__stringbase)| (0+32768)))& (0+255)
  1010     00A2  1283               	bcf	3,5	;RP0=0, select bank0
  1011     00A3  1303               	bcf	3,6	;RP1=0, select bank0
  1012     00A4  00C1               	movwf	LCD_print@string
  1013     00A5  3080               	movlw	128
  1014     00A6  00C2               	movwf	LCD_print@string+1
  1015     00A7  118A  26C8  118A   	fcall	_LCD_print
  1016     00AA                     l1953:
  1017                           
  1018                           ;env_maestro.c: 120:                 LCD_setCursor(2,0);
  1019     00AA  1283               	bcf	3,5	;RP0=0, select bank0
  1020     00AB  1303               	bcf	3,6	;RP1=0, select bank0
  1021     00AC  01C1               	clrf	LCD_setCursor@column
  1022     00AD  3002               	movlw	2
  1023     00AE  118A  272A  118A   	fcall	_LCD_setCursor
  1024                           
  1025                           ;env_maestro.c: 121:                 LCD_print("al esclavo . . .");
  1026     00B1  3011               	movlw	(low ((STR_2-__stringbase)| (0+32768)))& (0+255)
  1027     00B2  1283               	bcf	3,5	;RP0=0, select bank0
  1028     00B3  1303               	bcf	3,6	;RP1=0, select bank0
  1029     00B4  00C1               	movwf	LCD_print@string
  1030     00B5  3080               	movlw	128
  1031     00B6  00C2               	movwf	LCD_print@string+1
  1032     00B7  118A  26C8  118A   	fcall	_LCD_print
  1033     00BA                     l1955:
  1034                           
  1035                           ;env_maestro.c: 122:                 _delay((unsigned long)((2000)*(4000000/4000.0)));
  1036     00BA  300B               	movlw	11
  1037     00BB  1683               	bsf	3,5	;RP0=1, select bank1
  1038     00BC  1303               	bcf	3,6	;RP1=0, select bank1
  1039     00BD  00C4               	movwf	(??_main^(0+128)+2)
  1040     00BE  3026               	movlw	38
  1041     00BF  00C3               	movwf	(??_main^(0+128)+1)
  1042     00C0  305D               	movlw	93
  1043     00C1  00C2               	movwf	??_main^(0+128)
  1044     00C2                     u1757:
  1045     00C2  0BC2               	decfsz	??_main^(0+128),f
  1046     00C3  28C2               	goto	u1757
  1047     00C4  0BC3               	decfsz	(??_main^(0+128)+1),f
  1048     00C5  28C2               	goto	u1757
  1049     00C6  0BC4               	decfsz	(??_main^(0+128)+2),f
  1050     00C7  28C2               	goto	u1757
  1051     00C8  0000               	nop
  1052     00C9                     l1957:
  1053                           
  1054                           ;env_maestro.c: 123:                 LCD_clear();
  1055     00C9  118A  27D2  118A   	fcall	_LCD_clear
  1056     00CC                     l1959:
  1057                           
  1058                           ;env_maestro.c: 126:                 memset(displayString, 0, sizeof(displayString));
  1059     00CC  3000               	movlw	0
  1060     00CD  1283               	bcf	3,5	;RP0=0, select bank0
  1061     00CE  1303               	bcf	3,6	;RP1=0, select bank0
  1062     00CF  00BE               	movwf	memset@c
  1063     00D0  00BF               	movwf	memset@c+1
  1064     00D1  3011               	movlw	17
  1065     00D2  00C0               	movwf	memset@n
  1066     00D3  3000               	movlw	0
  1067     00D4  00C1               	movwf	memset@n+1
  1068     00D5  30A5               	movlw	(low (_displayString| 0))& (0+255)
  1069     00D6  118A  270C  118A   	fcall	_memset
  1070     00D9                     l1961:
  1071                           
  1072                           ;env_maestro.c: 127:                 charCount = 0;
  1073     00D9  1683               	bsf	3,5	;RP0=1, select bank1
  1074     00DA  1303               	bcf	3,6	;RP1=0, select bank1
  1075     00DB  01A2               	clrf	_charCount^(0+128)
  1076     00DC                     l1963:
  1077                           
  1078                           ;env_maestro.c: 128:                 cursorPosition = 0;
  1079     00DC  01A3               	clrf	_cursorPosition^(0+128)
  1080     00DD                     l1965:
  1081                           
  1082                           ;env_maestro.c: 131:                 i2c_role = 1;
  1083     00DD  3001               	movlw	1
  1084     00DE  00A4               	movwf	_i2c_role^(0+128)	;volatile
  1085                           
  1086                           ;env_maestro.c: 132:                 I2C_Slave_Init(0x20);
  1087     00DF  3020               	movlw	32
  1088     00E0  118A  27BE  118A   	fcall	_I2C_Slave_Init
  1089     00E3                     l1967:
  1090                           
  1091                           ;env_maestro.c: 133:                 LCD_setCursor(1,0);
  1092     00E3  1283               	bcf	3,5	;RP0=0, select bank0
  1093     00E4  1303               	bcf	3,6	;RP1=0, select bank0
  1094     00E5  01C1               	clrf	LCD_setCursor@column
  1095     00E6  3001               	movlw	1
  1096     00E7  118A  272A  118A   	fcall	_LCD_setCursor
  1097     00EA                     l1969:
  1098                           
  1099                           ;env_maestro.c: 134:                 LCD_print("Esperando res-");
  1100     00EA  3052               	movlw	(low ((STR_3-__stringbase)| (0+32768)))& (0+255)
  1101     00EB  1283               	bcf	3,5	;RP0=0, select bank0
  1102     00EC  1303               	bcf	3,6	;RP1=0, select bank0
  1103     00ED  00C1               	movwf	LCD_print@string
  1104     00EE  3080               	movlw	128
  1105     00EF  00C2               	movwf	LCD_print@string+1
  1106     00F0  118A  26C8  118A   	fcall	_LCD_print
  1107     00F3                     l1971:
  1108                           
  1109                           ;env_maestro.c: 135:                 LCD_setCursor(2,0);
  1110     00F3  1283               	bcf	3,5	;RP0=0, select bank0
  1111     00F4  1303               	bcf	3,6	;RP1=0, select bank0
  1112     00F5  01C1               	clrf	LCD_setCursor@column
  1113     00F6  3002               	movlw	2
  1114     00F7  118A  272A  118A   	fcall	_LCD_setCursor
  1115     00FA                     l1973:
  1116                           
  1117                           ;env_maestro.c: 136:                 LCD_print("del esclavo ...");
  1118     00FA  3022               	movlw	(low ((STR_4-__stringbase)| (0+32768)))& (0+255)
  1119     00FB  1283               	bcf	3,5	;RP0=0, select bank0
  1120     00FC  1303               	bcf	3,6	;RP1=0, select bank0
  1121     00FD  00C1               	movwf	LCD_print@string
  1122     00FE  3080               	movlw	128
  1123     00FF  00C2               	movwf	LCD_print@string+1
  1124     0100  118A  26C8  118A   	fcall	_LCD_print
  1125     0103  2A9F               	goto	l2097
  1126     0104                     l1975:
  1127     0104  084F               	movf	main@key^(0+128),w
  1128     0105  1903               	btfsc	3,2
  1129     0106  2908               	goto	u1531
  1130     0107  2909               	goto	u1530
  1131     0108                     u1531:
  1132     0108  2A9F               	goto	l2097
  1133     0109                     u1530:
  1134     0109                     l1977:
  1135     0109  302D               	movlw	45
  1136     010A  064F               	xorwf	main@key^(0+128),w
  1137     010B  1903               	btfsc	3,2
  1138     010C  290E               	goto	u1541
  1139     010D  290F               	goto	u1540
  1140     010E                     u1541:
  1141     010E  2A9F               	goto	l2097
  1142     010F                     u1540:
  1143     010F                     l1979:
  1144                           
  1145                           ;env_maestro.c: 143:             if (asciiMode && key == '=') {
  1146     010F  0821               	movf	_asciiMode^(0+128),w
  1147     0110  1903               	btfsc	3,2
  1148     0111  2913               	goto	u1551
  1149     0112  2914               	goto	u1550
  1150     0113                     u1551:
  1151     0113  2994               	goto	l2015
  1152     0114                     u1550:
  1153     0114                     l1981:
  1154     0114  303D               	movlw	61
  1155     0115  064F               	xorwf	main@key^(0+128),w
  1156     0116  1D03               	btfss	3,2
  1157     0117  2919               	goto	u1561
  1158     0118  291A               	goto	u1560
  1159     0119                     u1561:
  1160     0119  2994               	goto	l2015
  1161     011A                     u1560:
  1162     011A                     l1983:
  1163                           
  1164                           ;env_maestro.c: 145:                 int asciiCode = atoi(asciiValue);
  1165     011A  30B6               	movlw	(low (_asciiValue| 0))& (0+255)
  1166     011B  118A  2496  118A   	fcall	_atoi
  1167     011E  1283               	bcf	3,5	;RP0=0, select bank0
  1168     011F  1303               	bcf	3,6	;RP1=0, select bank0
  1169     0120  0845               	movf	?_atoi+1,w
  1170     0121  1683               	bsf	3,5	;RP0=1, select bank1
  1171     0122  1303               	bcf	3,6	;RP1=0, select bank1
  1172     0123  00C8               	movwf	(main@asciiCode+1)^(0+128)
  1173     0124  1283               	bcf	3,5	;RP0=0, select bank0
  1174     0125  1303               	bcf	3,6	;RP1=0, select bank0
  1175     0126  0844               	movf	?_atoi,w
  1176     0127  1683               	bsf	3,5	;RP0=1, select bank1
  1177     0128  1303               	bcf	3,6	;RP1=0, select bank1
  1178     0129  00C7               	movwf	main@asciiCode^(0+128)
  1179     012A                     l1985:
  1180                           
  1181                           ;env_maestro.c: 146:                 if (asciiCode >= 33 && asciiCode <= 254 && charCoun
      +                          t < 16) {
  1182     012A  0848               	movf	(main@asciiCode+1)^(0+128),w
  1183     012B  3A80               	xorlw	128
  1184     012C  00FF               	movwf	btemp+1
  1185     012D  3080               	movlw	128
  1186     012E  027F               	subwf	btemp+1,w
  1187     012F  1D03               	skipz
  1188     0130  2933               	goto	u1575
  1189     0131  3021               	movlw	33
  1190     0132  0247               	subwf	main@asciiCode^(0+128),w
  1191     0133                     u1575:
  1192     0133  1C03               	skipc
  1193     0134  2936               	goto	u1571
  1194     0135  2937               	goto	u1570
  1195     0136                     u1571:
  1196     0136  298E               	goto	l2009
  1197     0137                     u1570:
  1198     0137                     l1987:
  1199     0137  1683               	bsf	3,5	;RP0=1, select bank1
  1200     0138  1303               	bcf	3,6	;RP1=0, select bank1
  1201     0139  0848               	movf	(main@asciiCode+1)^(0+128),w
  1202     013A  3A80               	xorlw	128
  1203     013B  00FF               	movwf	btemp+1
  1204     013C  3080               	movlw	128
  1205     013D  027F               	subwf	btemp+1,w
  1206     013E  1D03               	skipz
  1207     013F  2942               	goto	u1585
  1208     0140  30FF               	movlw	255
  1209     0141  0247               	subwf	main@asciiCode^(0+128),w
  1210     0142                     u1585:
  1211     0142  1803               	skipnc
  1212     0143  2945               	goto	u1581
  1213     0144  2946               	goto	u1580
  1214     0145                     u1581:
  1215     0145  298E               	goto	l2009
  1216     0146                     u1580:
  1217     0146                     l1989:
  1218     0146  3010               	movlw	16
  1219     0147  1683               	bsf	3,5	;RP0=1, select bank1
  1220     0148  1303               	bcf	3,6	;RP1=0, select bank1
  1221     0149  0222               	subwf	_charCount^(0+128),w
  1222     014A  1803               	skipnc
  1223     014B  294D               	goto	u1591
  1224     014C  294E               	goto	u1590
  1225     014D                     u1591:
  1226     014D  298E               	goto	l2009
  1227     014E                     u1590:
  1228     014E                     l1991:
  1229                           
  1230                           ;env_maestro.c: 147:                     for (int i = charCount; i > cursorPosition; i--
      +                          ) {
  1231     014E  0822               	movf	_charCount^(0+128),w
  1232     014F  00C2               	movwf	??_main^(0+128)
  1233     0150  01C3               	clrf	(??_main^(0+128)+1)
  1234     0151  0842               	movf	??_main^(0+128),w
  1235     0152  00C9               	movwf	main@i_288^(0+128)
  1236     0153  0843               	movf	(??_main+1)^(0+128),w
  1237     0154  00CA               	movwf	(main@i_288+1)^(0+128)
  1238     0155  2969               	goto	l1997
  1239     0156                     l1993:
  1240                           
  1241                           ;env_maestro.c: 148:                         displayString[i] = displayString[i - 1];
  1242     0156  1683               	bsf	3,5	;RP0=1, select bank1
  1243     0157  1303               	bcf	3,6	;RP1=0, select bank1
  1244     0158  0849               	movf	main@i_288^(0+128),w
  1245     0159  3EA4               	addlw	(low ((_displayString| 0+255)))& (0+255)
  1246     015A  0084               	movwf	4
  1247     015B  1383               	bcf	3,7	;select IRP bank1
  1248     015C  0800               	movf	0,w
  1249     015D  00FF               	movwf	btemp+1
  1250     015E  0849               	movf	main@i_288^(0+128),w
  1251     015F  3EA5               	addlw	(low (_displayString| 0))& (0+255)
  1252     0160  0084               	movwf	4
  1253     0161  087F               	movf	btemp+1,w
  1254     0162  0080               	movwf	0
  1255     0163                     l1995:
  1256                           
  1257                           ;env_maestro.c: 149:                     }
  1258     0163  30FF               	movlw	255
  1259     0164  07C9               	addwf	main@i_288^(0+128),f
  1260     0165  1803               	skipnc
  1261     0166  0ACA               	incf	(main@i_288+1)^(0+128),f
  1262     0167  30FF               	movlw	255
  1263     0168  07CA               	addwf	(main@i_288+1)^(0+128),f
  1264     0169                     l1997:
  1265     0169  084A               	movf	(main@i_288+1)^(0+128),w
  1266     016A  3A80               	xorlw	128
  1267     016B  3C80               	sublw	128
  1268     016C  1D03               	skipz
  1269     016D  2970               	goto	u1605
  1270     016E  0849               	movf	main@i_288^(0+128),w
  1271     016F  0223               	subwf	_cursorPosition^(0+128),w
  1272     0170                     u1605:
  1273     0170  1C03               	skipc
  1274     0171  2973               	goto	u1601
  1275     0172  2974               	goto	u1600
  1276     0173                     u1601:
  1277     0173  2956               	goto	l1993
  1278     0174                     u1600:
  1279     0174                     l1999:
  1280                           
  1281                           ;env_maestro.c: 150:                     displayString[cursorPosition] = (char)asciiCode
      +                          ;
  1282     0174  1683               	bsf	3,5	;RP0=1, select bank1
  1283     0175  1303               	bcf	3,6	;RP1=0, select bank1
  1284     0176  0823               	movf	_cursorPosition^(0+128),w
  1285     0177  3EA5               	addlw	(low (_displayString| 0))& (0+255)
  1286     0178  0084               	movwf	4
  1287     0179  0847               	movf	main@asciiCode^(0+128),w
  1288     017A  1383               	bcf	3,7	;select IRP bank1
  1289     017B  0080               	movwf	0
  1290     017C                     l2001:
  1291                           
  1292                           ;env_maestro.c: 151:                     charCount++;
  1293     017C  3001               	movlw	1
  1294     017D  00FF               	movwf	btemp+1
  1295     017E  087F               	movf	btemp+1,w
  1296     017F  07A2               	addwf	_charCount^(0+128),f
  1297     0180                     l2003:
  1298                           
  1299                           ;env_maestro.c: 152:                     if (cursorPosition < 16 - 1) {
  1300     0180  300F               	movlw	15
  1301     0181  0223               	subwf	_cursorPosition^(0+128),w
  1302     0182  1803               	skipnc
  1303     0183  2985               	goto	u1611
  1304     0184  2986               	goto	u1610
  1305     0185                     u1611:
  1306     0185  298A               	goto	l2007
  1307     0186                     u1610:
  1308     0186                     l2005:
  1309                           
  1310                           ;env_maestro.c: 153:                         cursorPosition++;
  1311     0186  3001               	movlw	1
  1312     0187  00FF               	movwf	btemp+1
  1313     0188  087F               	movf	btemp+1,w
  1314     0189  07A3               	addwf	_cursorPosition^(0+128),f
  1315     018A                     l2007:
  1316                           
  1317                           ;env_maestro.c: 155:                     displayString[charCount] = '\0';
  1318     018A  0822               	movf	_charCount^(0+128),w
  1319     018B  3EA5               	addlw	(low (_displayString| 0))& (0+255)
  1320     018C  0084               	movwf	4
  1321     018D  0180               	clrf	0
  1322     018E                     l2009:
  1323                           
  1324                           ;env_maestro.c: 157:                 asciiMode = 0;
  1325     018E  1683               	bsf	3,5	;RP0=1, select bank1
  1326     018F  1303               	bcf	3,6	;RP1=0, select bank1
  1327     0190  01A1               	clrf	_asciiMode^(0+128)
  1328     0191                     l2011:
  1329                           
  1330                           ;env_maestro.c: 158:                 asciiDigits = 0;
  1331     0191  01A0               	clrf	_asciiDigits^(0+128)
  1332     0192                     l2013:
  1333                           
  1334                           ;env_maestro.c: 159:                 asciiValue[0] = '\0';
  1335     0192  01B6               	clrf	_asciiValue^(0+128)
  1336                           
  1337                           ;env_maestro.c: 160:             } else if (asciiMode && key >= '0' && key <= '9' && asc
      +                          iiDigits < 3) {
  1338     0193  2A82               	goto	l2089
  1339     0194                     l2015:
  1340     0194  0821               	movf	_asciiMode^(0+128),w
  1341     0195  1903               	btfsc	3,2
  1342     0196  2998               	goto	u1621
  1343     0197  2999               	goto	u1620
  1344     0198                     u1621:
  1345     0198  29BA               	goto	l2029
  1346     0199                     u1620:
  1347     0199                     l2017:
  1348     0199  3030               	movlw	48
  1349     019A  024F               	subwf	main@key^(0+128),w
  1350     019B  1C03               	skipc
  1351     019C  299E               	goto	u1631
  1352     019D  299F               	goto	u1630
  1353     019E                     u1631:
  1354     019E  29BA               	goto	l2029
  1355     019F                     u1630:
  1356     019F                     l2019:
  1357     019F  303A               	movlw	58
  1358     01A0  024F               	subwf	main@key^(0+128),w
  1359     01A1  1803               	skipnc
  1360     01A2  29A4               	goto	u1641
  1361     01A3  29A5               	goto	u1640
  1362     01A4                     u1641:
  1363     01A4  29BA               	goto	l2029
  1364     01A5                     u1640:
  1365     01A5                     l2021:
  1366     01A5  3003               	movlw	3
  1367     01A6  0220               	subwf	_asciiDigits^(0+128),w
  1368     01A7  1803               	skipnc
  1369     01A8  29AA               	goto	u1651
  1370     01A9  29AB               	goto	u1650
  1371     01AA                     u1651:
  1372     01AA  29BA               	goto	l2029
  1373     01AB                     u1650:
  1374     01AB                     l2023:
  1375                           
  1376                           ;env_maestro.c: 161:                 asciiValue[asciiDigits++] = key;
  1377     01AB  0820               	movf	_asciiDigits^(0+128),w
  1378     01AC  3EB6               	addlw	(low (_asciiValue| 0))& (0+255)
  1379     01AD  0084               	movwf	4
  1380     01AE  084F               	movf	main@key^(0+128),w
  1381     01AF  1383               	bcf	3,7	;select IRP bank1
  1382     01B0  0080               	movwf	0
  1383     01B1                     l2025:
  1384     01B1  3001               	movlw	1
  1385     01B2  00FF               	movwf	btemp+1
  1386     01B3  087F               	movf	btemp+1,w
  1387     01B4  07A0               	addwf	_asciiDigits^(0+128),f
  1388     01B5                     l2027:
  1389                           
  1390                           ;env_maestro.c: 162:                 asciiValue[asciiDigits] = '\0';
  1391     01B5  0820               	movf	_asciiDigits^(0+128),w
  1392     01B6  3EB6               	addlw	(low (_asciiValue| 0))& (0+255)
  1393     01B7  0084               	movwf	4
  1394     01B8  0180               	clrf	0
  1395                           
  1396                           ;env_maestro.c: 163:             } else if (!asciiMode) {
  1397     01B9  2A82               	goto	l2089
  1398     01BA                     l2029:
  1399     01BA  0821               	movf	_asciiMode^(0+128),w
  1400     01BB  1D03               	btfss	3,2
  1401     01BC  29BE               	goto	u1661
  1402     01BD  29BF               	goto	u1660
  1403     01BE                     u1661:
  1404     01BE  2A82               	goto	l2089
  1405     01BF                     u1660:
  1406     01BF  2A74               	goto	l2087
  1407     01C0                     l120:	
  1408                           ;env_maestro.c: 165:                     case '+':
  1409                           
  1410                           
  1411                           ;env_maestro.c: 166:                         asciiMode = 1;
  1412     01C0  01A1               	clrf	_asciiMode^(0+128)
  1413     01C1  0AA1               	incf	_asciiMode^(0+128),f
  1414     01C2                     l2033:
  1415                           
  1416                           ;env_maestro.c: 167:                 asciiDigits = 0;
  1417     01C2  01A0               	clrf	_asciiDigits^(0+128)
  1418                           
  1419                           ;env_maestro.c: 168:                 asciiValue[0] = '\0';
  1420     01C3  01B6               	clrf	_asciiValue^(0+128)
  1421                           
  1422                           ;env_maestro.c: 169:                         break;
  1423     01C4  2A82               	goto	l2089
  1424     01C5                     l2035:
  1425                           
  1426                           ;env_maestro.c: 171:                         if (cursorPosition > 0) cursorPosition--;
  1427     01C5  0823               	movf	_cursorPosition^(0+128),w
  1428     01C6  1903               	btfsc	3,2
  1429     01C7  29C9               	goto	u1671
  1430     01C8  29CA               	goto	u1670
  1431     01C9                     u1671:
  1432     01C9  2A82               	goto	l117
  1433     01CA                     u1670:
  1434     01CA                     l2037:
  1435     01CA  3001               	movlw	1
  1436     01CB  02A3               	subwf	_cursorPosition^(0+128),f
  1437     01CC  2A82               	goto	l2089
  1438     01CD                     l2039:
  1439                           
  1440                           ;env_maestro.c: 174:                         if (cursorPosition < charCount) cursorPosit
      +                          ion++;
  1441     01CD  0822               	movf	_charCount^(0+128),w
  1442     01CE  0223               	subwf	_cursorPosition^(0+128),w
  1443     01CF  1803               	skipnc
  1444     01D0  29D2               	goto	u1681
  1445     01D1  29D3               	goto	u1680
  1446     01D2                     u1681:
  1447     01D2  2A82               	goto	l117
  1448     01D3                     u1680:
  1449     01D3                     l2041:
  1450     01D3  3001               	movlw	1
  1451     01D4  00FF               	movwf	btemp+1
  1452     01D5  087F               	movf	btemp+1,w
  1453     01D6  07A3               	addwf	_cursorPosition^(0+128),f
  1454     01D7  2A82               	goto	l2089
  1455     01D8                     l2043:
  1456                           
  1457                           ;env_maestro.c: 177:                         if (cursorPosition < charCount) {
  1458     01D8  0822               	movf	_charCount^(0+128),w
  1459     01D9  0223               	subwf	_cursorPosition^(0+128),w
  1460     01DA  1803               	skipnc
  1461     01DB  29DD               	goto	u1691
  1462     01DC  29DE               	goto	u1690
  1463     01DD                     u1691:
  1464     01DD  2A82               	goto	l117
  1465     01DE                     u1690:
  1466     01DE                     l2045:
  1467                           
  1468                           ;env_maestro.c: 178:                             for (int i = cursorPosition; i < charCo
      +                          unt; i++) {
  1469     01DE  0823               	movf	_cursorPosition^(0+128),w
  1470     01DF  00C2               	movwf	??_main^(0+128)
  1471     01E0  01C3               	clrf	(??_main^(0+128)+1)
  1472     01E1  0842               	movf	??_main^(0+128),w
  1473     01E2  00CB               	movwf	main@i_289^(0+128)
  1474     01E3  0843               	movf	(??_main+1)^(0+128),w
  1475     01E4  00CC               	movwf	(main@i_289+1)^(0+128)
  1476     01E5  29F9               	goto	l2051
  1477     01E6                     l2047:
  1478                           
  1479                           ;env_maestro.c: 179:                                 displayString[i] = displayString[i 
      +                          + 1];
  1480     01E6  1683               	bsf	3,5	;RP0=1, select bank1
  1481     01E7  1303               	bcf	3,6	;RP1=0, select bank1
  1482     01E8  084B               	movf	main@i_289^(0+128),w
  1483     01E9  3EA6               	addlw	(low ((_displayString| 0+1)))& (0+255)
  1484     01EA  0084               	movwf	4
  1485     01EB  1383               	bcf	3,7	;select IRP bank1
  1486     01EC  0800               	movf	0,w
  1487     01ED  00FF               	movwf	btemp+1
  1488     01EE  084B               	movf	main@i_289^(0+128),w
  1489     01EF  3EA5               	addlw	(low (_displayString| 0))& (0+255)
  1490     01F0  0084               	movwf	4
  1491     01F1  087F               	movf	btemp+1,w
  1492     01F2  0080               	movwf	0
  1493     01F3                     l2049:
  1494                           
  1495                           ;env_maestro.c: 180:                             }
  1496     01F3  3001               	movlw	1
  1497     01F4  07CB               	addwf	main@i_289^(0+128),f
  1498     01F5  1803               	skipnc
  1499     01F6  0ACC               	incf	(main@i_289+1)^(0+128),f
  1500     01F7  3000               	movlw	0
  1501     01F8  07CC               	addwf	(main@i_289+1)^(0+128),f
  1502     01F9                     l2051:
  1503     01F9  084C               	movf	(main@i_289+1)^(0+128),w
  1504     01FA  3A80               	xorlw	128
  1505     01FB  00C2               	movwf	??_main^(0+128)
  1506     01FC  3080               	movlw	128
  1507     01FD  0242               	subwf	??_main^(0+128),w
  1508     01FE  1D03               	skipz
  1509     01FF  2A02               	goto	u1705
  1510     0200  0822               	movf	_charCount^(0+128),w
  1511     0201  024B               	subwf	main@i_289^(0+128),w
  1512     0202                     u1705:
  1513     0202  1C03               	skipc
  1514     0203  2A05               	goto	u1701
  1515     0204  2A06               	goto	u1700
  1516     0205                     u1701:
  1517     0205  29E6               	goto	l2047
  1518     0206                     u1700:
  1519     0206                     l2053:
  1520                           
  1521                           ;env_maestro.c: 181:                             charCount--;
  1522     0206  3001               	movlw	1
  1523     0207  1683               	bsf	3,5	;RP0=1, select bank1
  1524     0208  1303               	bcf	3,6	;RP1=0, select bank1
  1525     0209  02A2               	subwf	_charCount^(0+128),f
  1526     020A  2A82               	goto	l2089
  1527     020B                     l2055:
  1528                           
  1529                           ;env_maestro.c: 185:                        if (charCount < 16 - 1) {
  1530     020B  300F               	movlw	15
  1531     020C  0222               	subwf	_charCount^(0+128),w
  1532     020D  1803               	skipnc
  1533     020E  2A10               	goto	u1711
  1534     020F  2A11               	goto	u1710
  1535     0210                     u1711:
  1536     0210  2A53               	goto	l2075
  1537     0211                     u1710:
  1538     0211                     l2057:
  1539                           
  1540                           ;env_maestro.c: 186:                     for (int i = charCount; i > cursorPosition; i--
      +                          ) {
  1541     0211  0822               	movf	_charCount^(0+128),w
  1542     0212  00C2               	movwf	??_main^(0+128)
  1543     0213  01C3               	clrf	(??_main^(0+128)+1)
  1544     0214  0842               	movf	??_main^(0+128),w
  1545     0215  00CD               	movwf	main@i_290^(0+128)
  1546     0216  0843               	movf	(??_main+1)^(0+128),w
  1547     0217  00CE               	movwf	(main@i_290+1)^(0+128)
  1548     0218  2A2C               	goto	l2063
  1549     0219                     l2059:
  1550                           
  1551                           ;env_maestro.c: 187:                         displayString[i] = displayString[i - 1];
  1552     0219  1683               	bsf	3,5	;RP0=1, select bank1
  1553     021A  1303               	bcf	3,6	;RP1=0, select bank1
  1554     021B  084D               	movf	main@i_290^(0+128),w
  1555     021C  3EA4               	addlw	(low ((_displayString| 0+255)))& (0+255)
  1556     021D  0084               	movwf	4
  1557     021E  1383               	bcf	3,7	;select IRP bank1
  1558     021F  0800               	movf	0,w
  1559     0220  00FF               	movwf	btemp+1
  1560     0221  084D               	movf	main@i_290^(0+128),w
  1561     0222  3EA5               	addlw	(low (_displayString| 0))& (0+255)
  1562     0223  0084               	movwf	4
  1563     0224  087F               	movf	btemp+1,w
  1564     0225  0080               	movwf	0
  1565     0226                     l2061:
  1566                           
  1567                           ;env_maestro.c: 188:                     }
  1568     0226  30FF               	movlw	255
  1569     0227  07CD               	addwf	main@i_290^(0+128),f
  1570     0228  1803               	skipnc
  1571     0229  0ACE               	incf	(main@i_290+1)^(0+128),f
  1572     022A  30FF               	movlw	255
  1573     022B  07CE               	addwf	(main@i_290+1)^(0+128),f
  1574     022C                     l2063:
  1575     022C  084E               	movf	(main@i_290+1)^(0+128),w
  1576     022D  3A80               	xorlw	128
  1577     022E  3C80               	sublw	128
  1578     022F  1D03               	skipz
  1579     0230  2A33               	goto	u1725
  1580     0231  084D               	movf	main@i_290^(0+128),w
  1581     0232  0223               	subwf	_cursorPosition^(0+128),w
  1582     0233                     u1725:
  1583     0233  1C03               	skipc
  1584     0234  2A36               	goto	u1721
  1585     0235  2A37               	goto	u1720
  1586     0236                     u1721:
  1587     0236  2A19               	goto	l2059
  1588     0237                     u1720:
  1589     0237                     l2065:
  1590                           
  1591                           ;env_maestro.c: 189:                     displayString[cursorPosition] = key;
  1592     0237  1683               	bsf	3,5	;RP0=1, select bank1
  1593     0238  1303               	bcf	3,6	;RP1=0, select bank1
  1594     0239  0823               	movf	_cursorPosition^(0+128),w
  1595     023A  3EA5               	addlw	(low (_displayString| 0))& (0+255)
  1596     023B  0084               	movwf	4
  1597     023C  084F               	movf	main@key^(0+128),w
  1598     023D  1383               	bcf	3,7	;select IRP bank1
  1599     023E  0080               	movwf	0
  1600     023F                     l2067:
  1601                           
  1602                           ;env_maestro.c: 190:                     if (cursorPosition < 16 - 1) cursorPosition++;
  1603     023F  300F               	movlw	15
  1604     0240  0223               	subwf	_cursorPosition^(0+128),w
  1605     0241  1803               	skipnc
  1606     0242  2A44               	goto	u1731
  1607     0243  2A45               	goto	u1730
  1608     0244                     u1731:
  1609     0244  2A49               	goto	l2071
  1610     0245                     u1730:
  1611     0245                     l2069:
  1612     0245  3001               	movlw	1
  1613     0246  00FF               	movwf	btemp+1
  1614     0247  087F               	movf	btemp+1,w
  1615     0248  07A3               	addwf	_cursorPosition^(0+128),f
  1616     0249                     l2071:
  1617                           
  1618                           ;env_maestro.c: 191:                     if (charCount < 16) charCount++;
  1619     0249  3010               	movlw	16
  1620     024A  0222               	subwf	_charCount^(0+128),w
  1621     024B  1803               	skipnc
  1622     024C  2A4E               	goto	u1741
  1623     024D  2A4F               	goto	u1740
  1624     024E                     u1741:
  1625     024E  2A53               	goto	l2075
  1626     024F                     u1740:
  1627     024F                     l2073:
  1628     024F  3001               	movlw	1
  1629     0250  00FF               	movwf	btemp+1
  1630     0251  087F               	movf	btemp+1,w
  1631     0252  07A2               	addwf	_charCount^(0+128),f
  1632     0253                     l2075:
  1633                           
  1634                           ;env_maestro.c: 195:                 Prepare_LCD_Pins();
  1635     0253  158A  27BF  118A   	fcall	_Prepare_LCD_Pins
  1636     0256                     l2077:
  1637                           
  1638                           ;env_maestro.c: 196:                 LCD_clear();
  1639     0256  118A  27D2  118A   	fcall	_LCD_clear
  1640     0259                     l2079:
  1641                           
  1642                           ;env_maestro.c: 197:                 LCD_setCursor(1, 0);
  1643     0259  1283               	bcf	3,5	;RP0=0, select bank0
  1644     025A  1303               	bcf	3,6	;RP1=0, select bank0
  1645     025B  01C1               	clrf	LCD_setCursor@column
  1646     025C  3001               	movlw	1
  1647     025D  118A  272A  118A   	fcall	_LCD_setCursor
  1648     0260                     l2081:
  1649                           
  1650                           ;env_maestro.c: 198:                 LCD_print(displayString);
  1651     0260  30A5               	movlw	(low (_displayString| 0))& (0+255)
  1652     0261  1283               	bcf	3,5	;RP0=0, select bank0
  1653     0262  1303               	bcf	3,6	;RP1=0, select bank0
  1654     0263  00C1               	movwf	LCD_print@string
  1655     0264  3000               	movlw	0
  1656     0265  00C2               	movwf	LCD_print@string+1
  1657     0266  118A  26C8  118A   	fcall	_LCD_print
  1658     0269                     l2083:
  1659                           
  1660                           ;env_maestro.c: 199:                 LCD_setCursor(1, cursorPosition);
  1661     0269  1683               	bsf	3,5	;RP0=1, select bank1
  1662     026A  1303               	bcf	3,6	;RP1=0, select bank1
  1663     026B  0823               	movf	_cursorPosition^(0+128),w
  1664     026C  1283               	bcf	3,5	;RP0=0, select bank0
  1665     026D  1303               	bcf	3,6	;RP1=0, select bank0
  1666     026E  00C1               	movwf	LCD_setCursor@column
  1667     026F  3001               	movlw	1
  1668     0270  118A  272A  118A   	fcall	_LCD_setCursor
  1669                           
  1670                           ;env_maestro.c: 200:                 break;
  1671     0273  2A82               	goto	l2089
  1672     0274                     l2087:
  1673     0274  084F               	movf	main@key^(0+128),w
  1674                           
  1675                           ; Switch size 1, requested type "simple"
  1676                           ; Number of cases is 4, Range of values is 43 to 88
  1677                           ; switch strategies available:
  1678                           ; Name         Instructions Cycles
  1679                           ; simple_byte           13     7 (average)
  1680                           ; direct_byte          102    10 (fixed)
  1681                           ; jumptable            263     9 (fixed)
  1682                           ;	Chosen strategy is simple_byte
  1683     0275  3A2B               	xorlw	43	; case 43
  1684     0276  1903               	skipnz
  1685     0277  29C0               	goto	l120
  1686     0278  3A04               	xorlw	4	; case 47
  1687     0279  1903               	skipnz
  1688     027A  29C5               	goto	l2035
  1689     027B  3A6C               	xorlw	108	; case 67
  1690     027C  1903               	skipnz
  1691     027D  29D8               	goto	l2043
  1692     027E  3A1B               	xorlw	27	; case 88
  1693     027F  1903               	skipnz
  1694     0280  29CD               	goto	l2039
  1695     0281  2A0B               	goto	l2055
  1696     0282                     l117:
  1697     0282                     l2089:
  1698                           
  1699                           ;env_maestro.c: 204:             LCD_clear();
  1700     0282  118A  27D2  118A   	fcall	_LCD_clear
  1701     0285                     l2091:
  1702                           
  1703                           ;env_maestro.c: 205:             LCD_setCursor(1, 0);
  1704     0285  1283               	bcf	3,5	;RP0=0, select bank0
  1705     0286  1303               	bcf	3,6	;RP1=0, select bank0
  1706     0287  01C1               	clrf	LCD_setCursor@column
  1707     0288  3001               	movlw	1
  1708     0289  118A  272A  118A   	fcall	_LCD_setCursor
  1709     028C                     l2093:
  1710                           
  1711                           ;env_maestro.c: 206:             LCD_print(displayString);
  1712     028C  30A5               	movlw	(low (_displayString| 0))& (0+255)
  1713     028D  1283               	bcf	3,5	;RP0=0, select bank0
  1714     028E  1303               	bcf	3,6	;RP1=0, select bank0
  1715     028F  00C1               	movwf	LCD_print@string
  1716     0290  3000               	movlw	0
  1717     0291  00C2               	movwf	LCD_print@string+1
  1718     0292  118A  26C8  118A   	fcall	_LCD_print
  1719     0295                     l2095:
  1720                           
  1721                           ;env_maestro.c: 207:             LCD_setCursor(1, cursorPosition);
  1722     0295  1683               	bsf	3,5	;RP0=1, select bank1
  1723     0296  1303               	bcf	3,6	;RP1=0, select bank1
  1724     0297  0823               	movf	_cursorPosition^(0+128),w
  1725     0298  1283               	bcf	3,5	;RP0=0, select bank0
  1726     0299  1303               	bcf	3,6	;RP1=0, select bank0
  1727     029A  00C1               	movwf	LCD_setCursor@column
  1728     029B  3001               	movlw	1
  1729     029C  118A  272A  118A   	fcall	_LCD_setCursor
  1730     029F                     l2097:
  1731                           
  1732                           ;env_maestro.c: 210:         _delay((unsigned long)((100)*(4000000/4000.0)));
  1733     029F  3082               	movlw	130
  1734     02A0  1683               	bsf	3,5	;RP0=1, select bank1
  1735     02A1  1303               	bcf	3,6	;RP1=0, select bank1
  1736     02A2  00C3               	movwf	(??_main^(0+128)+1)
  1737     02A3  30DD               	movlw	221
  1738     02A4  00C2               	movwf	??_main^(0+128)
  1739     02A5                     u1767:
  1740     02A5  0BC2               	decfsz	??_main^(0+128),f
  1741     02A6  2AA5               	goto	u1767
  1742     02A7  0BC3               	decfsz	(??_main^(0+128)+1),f
  1743     02A8  2AA5               	goto	u1767
  1744     02A9  0000               	nop
  1745     02AA  2836               	goto	l1923
  1746     02AB  118A  2811         	ljmp	start
  1747     02AD                     __end_of_main:
  1748                           
  1749                           	psect	text1
  1750     070C                     __ptext1:	
  1751 ;; *************** function _memset *****************
  1752 ;; Defined at:
  1753 ;;		line 3 in file "C:\Program Files\Microchip\xc8\v2.46\pic\sources\c99\common\memset.c"
  1754 ;; Parameters:    Size  Location     Type
  1755 ;;  dest            1    wreg     PTR void 
  1756 ;;		 -> displayString(17), 
  1757 ;;  c               2   30[BANK0 ] int 
  1758 ;;  n               2   32[BANK0 ] unsigned int 
  1759 ;; Auto vars:     Size  Location     Type
  1760 ;;  dest            1   34[BANK0 ] PTR void 
  1761 ;;		 -> displayString(17), 
  1762 ;;  p               1   35[BANK0 ] PTR unsigned char 
  1763 ;;		 -> displayString(17), 
  1764 ;; Return value:  Size  Location     Type
  1765 ;;                  1    wreg      PTR void 
  1766 ;; Registers used:
  1767 ;;		wreg, fsr0l, fsr0h, status,2, status,0, btemp+1
  1768 ;; Tracked objects:
  1769 ;;		On entry : 0/0
  1770 ;;		On exit  : 0/0
  1771 ;;		Unchanged: 0/0
  1772 ;; Data sizes:     COMMON   BANK0   BANK1
  1773 ;;      Params:         0       4       0
  1774 ;;      Locals:         0       2       0
  1775 ;;      Temps:          0       0       0
  1776 ;;      Totals:         0       6       0
  1777 ;;Total ram usage:        6 bytes
  1778 ;; Hardware stack levels used: 1
  1779 ;; Hardware stack levels required when called: 3
  1780 ;; This function calls:
  1781 ;;		Nothing
  1782 ;; This function is called by:
  1783 ;;		_main
  1784 ;; This function uses a non-reentrant model
  1785 ;;
  1786                           
  1787     070C                     _memset:	
  1788                           ;psect for function _memset
  1789                           
  1790                           
  1791                           ;incstack = 0
  1792                           ; Regs used in _memset: [wreg-fsr0h+status,2+status,0+btemp+1]
  1793                           ;memset@dest stored from wreg
  1794     070C  1283               	bcf	3,5	;RP0=0, select bank0
  1795     070D  1303               	bcf	3,6	;RP1=0, select bank0
  1796     070E  00C2               	movwf	memset@dest
  1797     070F                     l1571:
  1798     070F  0842               	movf	memset@dest,w
  1799     0710  00C3               	movwf	memset@p
  1800     0711  2F1B               	goto	l1577
  1801     0712                     l1573:
  1802     0712  0843               	movf	memset@p,w
  1803     0713  0084               	movwf	4
  1804     0714  083E               	movf	memset@c,w
  1805     0715  1383               	bcf	3,7	;select IRP bank0
  1806     0716  0080               	movwf	0
  1807     0717                     l1575:
  1808     0717  3001               	movlw	1
  1809     0718  00FF               	movwf	btemp+1
  1810     0719  087F               	movf	btemp+1,w
  1811     071A  07C3               	addwf	memset@p,f
  1812     071B                     l1577:
  1813     071B  3001               	movlw	1
  1814     071C  02C0               	subwf	memset@n,f
  1815     071D  3000               	movlw	0
  1816     071E  1C03               	skipc
  1817     071F  03C1               	decf	memset@n+1,f
  1818     0720  02C1               	subwf	memset@n+1,f
  1819     0721  0A40               	incf	memset@n,w
  1820     0722  1D03               	skipz
  1821     0723  2F28               	goto	u1061
  1822     0724  0A41               	incf	memset@n+1,w
  1823     0725  1D03               	btfss	3,2
  1824     0726  2F28               	goto	u1061
  1825     0727  2F29               	goto	u1060
  1826     0728                     u1061:
  1827     0728  2F12               	goto	l1573
  1828     0729                     u1060:
  1829     0729                     l787:
  1830     0729  0008               	return
  1831     072A                     __end_of_memset:
  1832                           
  1833                           	psect	text2
  1834     0496                     __ptext2:	
  1835 ;; *************** function _atoi *****************
  1836 ;; Defined at:
  1837 ;;		line 5 in file "C:\Program Files\Microchip\xc8\v2.46\pic\sources\c99\common\atoi.c"
  1838 ;; Parameters:    Size  Location     Type
  1839 ;;  s               1    wreg     PTR const unsigned char 
  1840 ;;		 -> asciiValue(4), 
  1841 ;; Auto vars:     Size  Location     Type
  1842 ;;  s               1   43[BANK0 ] PTR const unsigned char 
  1843 ;;		 -> asciiValue(4), 
  1844 ;;  n               2   41[BANK0 ] int 
  1845 ;;  neg             1   40[BANK0 ] _Bool 
  1846 ;; Return value:  Size  Location     Type
  1847 ;;                  2   36[BANK0 ] int 
  1848 ;; Registers used:
  1849 ;;		wreg, fsr0l, fsr0h, status,2, status,0, btemp+1, pclath, cstack
  1850 ;; Tracked objects:
  1851 ;;		On entry : 0/0
  1852 ;;		On exit  : 0/0
  1853 ;;		Unchanged: 0/0
  1854 ;; Data sizes:     COMMON   BANK0   BANK1
  1855 ;;      Params:         0       2       0
  1856 ;;      Locals:         0       4       0
  1857 ;;      Temps:          0       2       0
  1858 ;;      Totals:         0       8       0
  1859 ;;Total ram usage:        8 bytes
  1860 ;; Hardware stack levels used: 1
  1861 ;; Hardware stack levels required when called: 4
  1862 ;; This function calls:
  1863 ;;		___wmul
  1864 ;; This function is called by:
  1865 ;;		_main
  1866 ;; This function uses a non-reentrant model
  1867 ;;
  1868                           
  1869     0496                     _atoi:	
  1870                           ;psect for function _atoi
  1871                           
  1872                           
  1873                           ;incstack = 0
  1874                           ; Regs used in _atoi: [wreg-fsr0h+status,2+status,0+btemp+1+pclath+cstack]
  1875                           ;atoi@s stored from wreg
  1876     0496  1283               	bcf	3,5	;RP0=0, select bank0
  1877     0497  1303               	bcf	3,6	;RP1=0, select bank0
  1878     0498  00CB               	movwf	atoi@s
  1879     0499                     l1593:
  1880     0499  01C9               	clrf	atoi@n
  1881     049A  01CA               	clrf	atoi@n+1
  1882     049B  01C8               	clrf	atoi@neg
  1883     049C  2CA1               	goto	l1597
  1884     049D                     l1595:
  1885     049D  3001               	movlw	1
  1886     049E  00FF               	movwf	btemp+1
  1887     049F  087F               	movf	btemp+1,w
  1888     04A0  07CB               	addwf	atoi@s,f
  1889     04A1                     l1597:
  1890     04A1  084B               	movf	atoi@s,w
  1891     04A2  0084               	movwf	4
  1892     04A3  3020               	movlw	32
  1893     04A4  1383               	bcf	3,7	;select IRP bank0
  1894     04A5  0600               	xorwf	0,w
  1895     04A6  1903               	btfsc	3,2
  1896     04A7  2CA9               	goto	u1071
  1897     04A8  2CAA               	goto	u1070
  1898     04A9                     u1071:
  1899     04A9  2C9D               	goto	l1595
  1900     04AA                     u1070:
  1901     04AA                     l1599:
  1902     04AA  084B               	movf	atoi@s,w
  1903     04AB  0084               	movwf	4
  1904     04AC  30F7               	movlw	247
  1905     04AD  0700               	addwf	0,w
  1906     04AE  00C6               	movwf	??_atoi
  1907     04AF  3005               	movlw	5
  1908     04B0  0246               	subwf	??_atoi,w
  1909     04B1  1C03               	skipc
  1910     04B2  2CB4               	goto	u1081
  1911     04B3  2CB5               	goto	u1080
  1912     04B4                     u1081:
  1913     04B4  2C9D               	goto	l1595
  1914     04B5                     u1080:
  1915     04B5                     l1601:
  1916     04B5  084B               	movf	atoi@s,w
  1917     04B6  0084               	movwf	4
  1918     04B7  302D               	movlw	45
  1919     04B8  0600               	xorwf	0,w
  1920     04B9  1D03               	btfss	3,2
  1921     04BA  2CBC               	goto	u1091
  1922     04BB  2CBD               	goto	u1090
  1923     04BC                     u1091:
  1924     04BC  2CC4               	goto	l1607
  1925     04BD                     u1090:
  1926     04BD                     l1603:
  1927     04BD  01C8               	clrf	atoi@neg
  1928     04BE  0AC8               	incf	atoi@neg,f
  1929     04BF                     l1605:
  1930     04BF  3001               	movlw	1
  1931     04C0  00FF               	movwf	btemp+1
  1932     04C1  087F               	movf	btemp+1,w
  1933     04C2  07CB               	addwf	atoi@s,f
  1934     04C3  2CED               	goto	l1615
  1935     04C4                     l1607:
  1936     04C4  084B               	movf	atoi@s,w
  1937     04C5  0084               	movwf	4
  1938     04C6  302B               	movlw	43
  1939     04C7  0600               	xorwf	0,w
  1940     04C8  1D03               	btfss	3,2
  1941     04C9  2CCB               	goto	u1101
  1942     04CA  2CCC               	goto	u1100
  1943     04CB                     u1101:
  1944     04CB  2CED               	goto	l1615
  1945     04CC                     u1100:
  1946     04CC  2CBF               	goto	l1605
  1947     04CD                     l1611:
  1948     04CD  084B               	movf	atoi@s,w
  1949     04CE  0084               	movwf	4
  1950     04CF  084A               	movf	atoi@n+1,w
  1951     04D0  00BF               	movwf	___wmul@multiplier+1
  1952     04D1  0849               	movf	atoi@n,w
  1953     04D2  00BE               	movwf	___wmul@multiplier
  1954     04D3  300A               	movlw	10
  1955     04D4  00C0               	movwf	___wmul@multiplicand
  1956     04D5  3000               	movlw	0
  1957     04D6  00C1               	movwf	___wmul@multiplicand+1
  1958     04D7  118A  26A1  118A   	fcall	___wmul
  1959     04DA  1283               	bcf	3,5	;RP0=0, select bank0
  1960     04DB  1303               	bcf	3,6	;RP1=0, select bank0
  1961     04DC  083F               	movf	?___wmul+1,w
  1962     04DD  00C7               	movwf	??_atoi+1
  1963     04DE  1383               	bcf	3,7	;select IRP bank0
  1964     04DF  0800               	movf	0,w
  1965     04E0  023E               	subwf	?___wmul,w
  1966     04E1  00C6               	movwf	??_atoi
  1967     04E2  1C03               	skipc
  1968     04E3  03C7               	decf	??_atoi+1,f
  1969     04E4  0846               	movf	??_atoi,w
  1970     04E5  3E30               	addlw	48
  1971     04E6  00C9               	movwf	atoi@n
  1972     04E7  0847               	movf	??_atoi+1,w
  1973     04E8  1803               	skipnc
  1974     04E9  3E01               	addlw	1
  1975     04EA  3E00               	addlw	0
  1976     04EB  00CA               	movwf	atoi@n+1
  1977     04EC  2CBF               	goto	l1605
  1978     04ED                     l1615:
  1979     04ED  084B               	movf	atoi@s,w
  1980     04EE  0084               	movwf	4
  1981     04EF  30D0               	movlw	208
  1982     04F0  0700               	addwf	0,w
  1983     04F1  00C6               	movwf	??_atoi
  1984     04F2  300A               	movlw	10
  1985     04F3  0246               	subwf	??_atoi,w
  1986     04F4  1C03               	skipc
  1987     04F5  2CF7               	goto	u1111
  1988     04F6  2CF8               	goto	u1110
  1989     04F7                     u1111:
  1990     04F7  2CCD               	goto	l1611
  1991     04F8                     u1110:
  1992     04F8                     l1617:
  1993     04F8  0848               	movf	atoi@neg,w
  1994     04F9  1D03               	btfss	3,2
  1995     04FA  2CFC               	goto	u1121
  1996     04FB  2CFD               	goto	u1120
  1997     04FC                     u1121:
  1998     04FC  2D09               	goto	l1621
  1999     04FD                     u1120:
  2000     04FD                     l1619:
  2001     04FD  0949               	comf	atoi@n,w
  2002     04FE  00C6               	movwf	??_atoi
  2003     04FF  094A               	comf	atoi@n+1,w
  2004     0500  00C7               	movwf	??_atoi+1
  2005     0501  0AC6               	incf	??_atoi,f
  2006     0502  1903               	skipnz
  2007     0503  0AC7               	incf	??_atoi+1,f
  2008     0504  0846               	movf	??_atoi,w
  2009     0505  00C4               	movwf	?_atoi
  2010     0506  0847               	movf	??_atoi+1,w
  2011     0507  00C5               	movwf	?_atoi+1
  2012     0508  2D0D               	goto	l781
  2013     0509                     l1621:
  2014     0509  084A               	movf	atoi@n+1,w
  2015     050A  00C5               	movwf	?_atoi+1
  2016     050B  0849               	movf	atoi@n,w
  2017     050C  00C4               	movwf	?_atoi
  2018     050D                     l781:
  2019     050D  0008               	return
  2020     050E                     __end_of_atoi:
  2021                           
  2022                           	psect	text3
  2023     06A1                     __ptext3:	
  2024 ;; *************** function ___wmul *****************
  2025 ;; Defined at:
  2026 ;;		line 15 in file "C:\Program Files\Microchip\xc8\v2.46\pic\sources\c99\common\Umul16.c"
  2027 ;; Parameters:    Size  Location     Type
  2028 ;;  multiplier      2   30[BANK0 ] unsigned int 
  2029 ;;  multiplicand    2   32[BANK0 ] unsigned int 
  2030 ;; Auto vars:     Size  Location     Type
  2031 ;;  product         2   34[BANK0 ] unsigned int 
  2032 ;; Return value:  Size  Location     Type
  2033 ;;                  2   30[BANK0 ] unsigned int 
  2034 ;; Registers used:
  2035 ;;		wreg, status,2, status,0
  2036 ;; Tracked objects:
  2037 ;;		On entry : 0/0
  2038 ;;		On exit  : 0/0
  2039 ;;		Unchanged: 0/0
  2040 ;; Data sizes:     COMMON   BANK0   BANK1
  2041 ;;      Params:         0       4       0
  2042 ;;      Locals:         0       2       0
  2043 ;;      Temps:          0       0       0
  2044 ;;      Totals:         0       6       0
  2045 ;;Total ram usage:        6 bytes
  2046 ;; Hardware stack levels used: 1
  2047 ;; Hardware stack levels required when called: 3
  2048 ;; This function calls:
  2049 ;;		Nothing
  2050 ;; This function is called by:
  2051 ;;		_atoi
  2052 ;; This function uses a non-reentrant model
  2053 ;;
  2054                           
  2055     06A1                     ___wmul:	
  2056                           ;psect for function ___wmul
  2057                           
  2058     06A1                     l1371:	
  2059                           ;incstack = 0
  2060                           ; Regs used in ___wmul: [wreg+status,2+status,0]
  2061                           
  2062     06A1  1283               	bcf	3,5	;RP0=0, select bank0
  2063     06A2  1303               	bcf	3,6	;RP1=0, select bank0
  2064     06A3  01C2               	clrf	___wmul@product
  2065     06A4  01C3               	clrf	___wmul@product+1
  2066     06A5                     l1373:
  2067     06A5  1C3E               	btfss	___wmul@multiplier,0
  2068     06A6  2EA8               	goto	u771
  2069     06A7  2EA9               	goto	u770
  2070     06A8                     u771:
  2071     06A8  2EAF               	goto	l309
  2072     06A9                     u770:
  2073     06A9                     l1375:
  2074     06A9  0840               	movf	___wmul@multiplicand,w
  2075     06AA  07C2               	addwf	___wmul@product,f
  2076     06AB  1803               	skipnc
  2077     06AC  0AC3               	incf	___wmul@product+1,f
  2078     06AD  0841               	movf	___wmul@multiplicand+1,w
  2079     06AE  07C3               	addwf	___wmul@product+1,f
  2080     06AF                     l309:
  2081     06AF  3001               	movlw	1
  2082     06B0                     u785:
  2083     06B0  1003               	clrc
  2084     06B1  0DC0               	rlf	___wmul@multiplicand,f
  2085     06B2  0DC1               	rlf	___wmul@multiplicand+1,f
  2086     06B3  3EFF               	addlw	-1
  2087     06B4  1D03               	skipz
  2088     06B5  2EB0               	goto	u785
  2089     06B6                     l1377:
  2090     06B6  3001               	movlw	1
  2091     06B7                     u795:
  2092     06B7  1003               	clrc
  2093     06B8  0CBF               	rrf	___wmul@multiplier+1,f
  2094     06B9  0CBE               	rrf	___wmul@multiplier,f
  2095     06BA  3EFF               	addlw	-1
  2096     06BB  1D03               	skipz
  2097     06BC  2EB7               	goto	u795
  2098     06BD                     l1379:
  2099     06BD  083E               	movf	___wmul@multiplier,w
  2100     06BE  043F               	iorwf	___wmul@multiplier+1,w
  2101     06BF  1D03               	btfss	3,2
  2102     06C0  2EC2               	goto	u801
  2103     06C1  2EC3               	goto	u800
  2104     06C2                     u801:
  2105     06C2  2EA5               	goto	l1373
  2106     06C3                     u800:
  2107     06C3                     l1381:
  2108     06C3  0843               	movf	___wmul@product+1,w
  2109     06C4  00BF               	movwf	?___wmul+1
  2110     06C5  0842               	movf	___wmul@product,w
  2111     06C6  00BE               	movwf	?___wmul
  2112     06C7                     l311:
  2113     06C7  0008               	return
  2114     06C8                     __end_of___wmul:
  2115                           
  2116                           	psect	text4
  2117     037E                     __ptext4:	
  2118 ;; *************** function _Read_Keypad *****************
  2119 ;; Defined at:
  2120 ;;		line 283 in file "env_maestro.c"
  2121 ;; Parameters:    Size  Location     Type
  2122 ;;		None
  2123 ;; Auto vars:     Size  Location     Type
  2124 ;;  col             2   34[BANK0 ] int 
  2125 ;;  row             2   32[BANK0 ] int 
  2126 ;; Return value:  Size  Location     Type
  2127 ;;                  1    wreg      unsigned char 
  2128 ;; Registers used:
  2129 ;;		wreg, fsr0l, fsr0h, status,2, status,0, btemp+1, pclath
  2130 ;; Tracked objects:
  2131 ;;		On entry : 0/0
  2132 ;;		On exit  : 0/0
  2133 ;;		Unchanged: 0/0
  2134 ;; Data sizes:     COMMON   BANK0   BANK1
  2135 ;;      Params:         0       0       0
  2136 ;;      Locals:         0       4       0
  2137 ;;      Temps:          0       2       0
  2138 ;;      Totals:         0       6       0
  2139 ;;Total ram usage:        6 bytes
  2140 ;; Hardware stack levels used: 1
  2141 ;; Hardware stack levels required when called: 3
  2142 ;; This function calls:
  2143 ;;		Nothing
  2144 ;; This function is called by:
  2145 ;;		_main
  2146 ;; This function uses a non-reentrant model
  2147 ;;
  2148                           
  2149     037E                     _Read_Keypad:	
  2150                           ;psect for function _Read_Keypad
  2151                           
  2152     037E                     l1491:	
  2153                           ;incstack = 0
  2154                           ; Regs used in _Read_Keypad: [wreg-fsr0h+status,2+status,0+btemp+1+pclath]
  2155                           
  2156                           
  2157                           ;env_maestro.c: 284:     for(int row = 0; row < 4; row++) {
  2158     037E  1283               	bcf	3,5	;RP0=0, select bank0
  2159     037F  1303               	bcf	3,6	;RP1=0, select bank0
  2160     0380  01C0               	clrf	Read_Keypad@row
  2161     0381  01C1               	clrf	Read_Keypad@row+1
  2162     0382                     l1493:
  2163     0382  0841               	movf	Read_Keypad@row+1,w
  2164     0383  3A80               	xorlw	128
  2165     0384  00FF               	movwf	btemp+1
  2166     0385  3080               	movlw	128
  2167     0386  027F               	subwf	btemp+1,w
  2168     0387  1D03               	skipz
  2169     0388  2B8B               	goto	u965
  2170     0389  3004               	movlw	4
  2171     038A  0240               	subwf	Read_Keypad@row,w
  2172     038B                     u965:
  2173     038B  1C03               	skipc
  2174     038C  2B8E               	goto	u961
  2175     038D  2B8F               	goto	u960
  2176     038E                     u961:
  2177     038E  2B90               	goto	l1497
  2178     038F                     u960:
  2179     038F  2C17               	goto	l1531
  2180     0390                     l1497:
  2181                           
  2182                           ;env_maestro.c: 286:         PORTB = (unsigned char)~(0x10 << row);
  2183     0390  3010               	movlw	16
  2184     0391  1283               	bcf	3,5	;RP0=0, select bank0
  2185     0392  1303               	bcf	3,6	;RP1=0, select bank0
  2186     0393  00BE               	movwf	??_Read_Keypad
  2187     0394  0A40               	incf	Read_Keypad@row,w
  2188     0395  2B98               	goto	u974
  2189     0396                     u975:
  2190     0396  1003               	clrc
  2191     0397  0DBE               	rlf	??_Read_Keypad,f
  2192     0398                     u974:
  2193     0398  3EFF               	addlw	-1
  2194     0399  1D03               	skipz
  2195     039A  2B96               	goto	u975
  2196     039B  083E               	movf	??_Read_Keypad,w
  2197     039C  3AFF               	xorlw	255
  2198     039D  0086               	movwf	6	;volatile
  2199     039E                     l1499:
  2200                           
  2201                           ;env_maestro.c: 289:         TRISB = 0x0F;
  2202     039E  300F               	movlw	15
  2203     039F  1683               	bsf	3,5	;RP0=1, select bank1
  2204     03A0  1303               	bcf	3,6	;RP1=0, select bank1
  2205     03A1  0086               	movwf	6	;volatile
  2206     03A2                     l1501:
  2207                           
  2208                           ;env_maestro.c: 291:         _delay((unsigned long)((20)*(4000000/4000.0)));
  2209     03A2  301A               	movlw	26
  2210     03A3  1283               	bcf	3,5	;RP0=0, select bank0
  2211     03A4  1303               	bcf	3,6	;RP1=0, select bank0
  2212     03A5  00BF               	movwf	??_Read_Keypad+1
  2213     03A6  30F8               	movlw	248
  2214     03A7  00BE               	movwf	??_Read_Keypad
  2215     03A8                     u1777:
  2216     03A8  0BBE               	decfsz	??_Read_Keypad,f
  2217     03A9  2BA8               	goto	u1777
  2218     03AA  0BBF               	decfsz	??_Read_Keypad+1,f
  2219     03AB  2BA8               	goto	u1777
  2220     03AC                     l1503:
  2221                           
  2222                           ;env_maestro.c: 293:         for(int col = 0; col < 4; col++) {
  2223     03AC  1283               	bcf	3,5	;RP0=0, select bank0
  2224     03AD  1303               	bcf	3,6	;RP1=0, select bank0
  2225     03AE  01C2               	clrf	Read_Keypad@col
  2226     03AF  01C3               	clrf	Read_Keypad@col+1
  2227     03B0                     l1509:
  2228                           
  2229                           ;env_maestro.c: 295:             if(!(PORTB & (0x01 << col))) {
  2230     03B0  3001               	movlw	1
  2231     03B1  1283               	bcf	3,5	;RP0=0, select bank0
  2232     03B2  1303               	bcf	3,6	;RP1=0, select bank0
  2233     03B3  00BE               	movwf	??_Read_Keypad
  2234     03B4  0A42               	incf	Read_Keypad@col,w
  2235     03B5  2BB8               	goto	u984
  2236     03B6                     u985:
  2237     03B6  1003               	clrc
  2238     03B7  0DBE               	rlf	??_Read_Keypad,f
  2239     03B8                     u984:
  2240     03B8  3EFF               	addlw	-1
  2241     03B9  1D03               	skipz
  2242     03BA  2BB6               	goto	u985
  2243     03BB  083E               	movf	??_Read_Keypad,w
  2244     03BC  0506               	andwf	6,w	;volatile
  2245     03BD  1D03               	btfss	3,2
  2246     03BE  2BC0               	goto	u991
  2247     03BF  2BC1               	goto	u990
  2248     03C0                     u991:
  2249     03C0  2BF7               	goto	l1523
  2250     03C1                     u990:
  2251     03C1                     l1513:
  2252     03C1  3001               	movlw	1
  2253     03C2  00BE               	movwf	??_Read_Keypad
  2254     03C3  0A42               	incf	Read_Keypad@col,w
  2255     03C4  2BC7               	goto	u1004
  2256     03C5                     u1005:
  2257     03C5  1003               	clrc
  2258     03C6  0DBE               	rlf	??_Read_Keypad,f
  2259     03C7                     u1004:
  2260     03C7  3EFF               	addlw	-1
  2261     03C8  1D03               	skipz
  2262     03C9  2BC5               	goto	u1005
  2263     03CA  083E               	movf	??_Read_Keypad,w
  2264     03CB  0506               	andwf	6,w	;volatile
  2265     03CC  1903               	btfsc	3,2
  2266     03CD  2BCF               	goto	u1011
  2267     03CE  2BD0               	goto	u1010
  2268     03CF                     u1011:
  2269     03CF  2BC1               	goto	l1513
  2270     03D0                     u1010:
  2271     03D0                     l178:
  2272                           
  2273                           ;env_maestro.c: 297:                 PORTAbits.RA3 = 0;
  2274     03D0  1185               	bcf	5,3	;volatile
  2275     03D1                     l1515:
  2276                           
  2277                           ;env_maestro.c: 298:                 _delay((unsigned long)((100)*(4000000/4000.0)));
  2278     03D1  3082               	movlw	130
  2279     03D2  1283               	bcf	3,5	;RP0=0, select bank0
  2280     03D3  1303               	bcf	3,6	;RP1=0, select bank0
  2281     03D4  00BF               	movwf	??_Read_Keypad+1
  2282     03D5  30DD               	movlw	221
  2283     03D6  00BE               	movwf	??_Read_Keypad
  2284     03D7                     u1787:
  2285     03D7  0BBE               	decfsz	??_Read_Keypad,f
  2286     03D8  2BD7               	goto	u1787
  2287     03D9  0BBF               	decfsz	??_Read_Keypad+1,f
  2288     03DA  2BD7               	goto	u1787
  2289     03DB  0000               	nop
  2290     03DC                     l1517:
  2291                           
  2292                           ;env_maestro.c: 299:                 PORTAbits.RA3 = 1;
  2293     03DC  1283               	bcf	3,5	;RP0=0, select bank0
  2294     03DD  1303               	bcf	3,6	;RP1=0, select bank0
  2295     03DE  1585               	bsf	5,3	;volatile
  2296                           
  2297                           ;env_maestro.c: 301:                 TRISB = 0xF0;
  2298     03DF  30F0               	movlw	240
  2299     03E0  1683               	bsf	3,5	;RP0=1, select bank1
  2300     03E1  1303               	bcf	3,6	;RP1=0, select bank1
  2301     03E2  0086               	movwf	6	;volatile
  2302     03E3                     l1519:
  2303                           
  2304                           ;env_maestro.c: 303:                 return teclas[row][col];
  2305     03E3  1283               	bcf	3,5	;RP0=0, select bank0
  2306     03E4  1303               	bcf	3,6	;RP1=0, select bank0
  2307     03E5  0840               	movf	Read_Keypad@row,w
  2308     03E6  00BE               	movwf	??_Read_Keypad
  2309     03E7  3002               	movlw	2
  2310     03E8                     u1025:
  2311     03E8  1003               	clrc
  2312     03E9  0DBE               	rlf	??_Read_Keypad,f
  2313     03EA  3EFF               	addlw	-1
  2314     03EB  1D03               	skipz
  2315     03EC  2BE8               	goto	u1025
  2316     03ED  3001               	movlw	(low ((_teclas-__stringbase)| (0+32768)))& (0+255)
  2317     03EE  073E               	addwf	??_Read_Keypad,w
  2318     03EF  00BF               	movwf	??_Read_Keypad+1
  2319     03F0  0842               	movf	Read_Keypad@col,w
  2320     03F1  073F               	addwf	??_Read_Keypad+1,w
  2321     03F2  0084               	movwf	4
  2322     03F3  118A  2423  118A   	fcall	stringdir
  2323     03F6  2C18               	goto	l179
  2324     03F7                     l1523:
  2325                           
  2326                           ;env_maestro.c: 305:         }
  2327     03F7  3001               	movlw	1
  2328     03F8  07C2               	addwf	Read_Keypad@col,f
  2329     03F9  1803               	skipnc
  2330     03FA  0AC3               	incf	Read_Keypad@col+1,f
  2331     03FB  3000               	movlw	0
  2332     03FC  07C3               	addwf	Read_Keypad@col+1,f
  2333     03FD                     l1525:
  2334     03FD  0843               	movf	Read_Keypad@col+1,w
  2335     03FE  3A80               	xorlw	128
  2336     03FF  00FF               	movwf	btemp+1
  2337     0400  3080               	movlw	128
  2338     0401  027F               	subwf	btemp+1,w
  2339     0402  1D03               	skipz
  2340     0403  2C06               	goto	u1035
  2341     0404  3004               	movlw	4
  2342     0405  0242               	subwf	Read_Keypad@col,w
  2343     0406                     u1035:
  2344     0406  1C03               	skipc
  2345     0407  2C09               	goto	u1031
  2346     0408  2C0A               	goto	u1030
  2347     0409                     u1031:
  2348     0409  2BB0               	goto	l1509
  2349     040A                     u1030:
  2350     040A                     l1527:
  2351                           
  2352                           ;env_maestro.c: 308:         TRISB = 0xF0;
  2353     040A  30F0               	movlw	240
  2354     040B  1683               	bsf	3,5	;RP0=1, select bank1
  2355     040C  1303               	bcf	3,6	;RP1=0, select bank1
  2356     040D  0086               	movwf	6	;volatile
  2357                           
  2358                           ;env_maestro.c: 309:     }
  2359     040E  3001               	movlw	1
  2360     040F  1283               	bcf	3,5	;RP0=0, select bank0
  2361     0410  1303               	bcf	3,6	;RP1=0, select bank0
  2362     0411  07C0               	addwf	Read_Keypad@row,f
  2363     0412  1803               	skipnc
  2364     0413  0AC1               	incf	Read_Keypad@row+1,f
  2365     0414  3000               	movlw	0
  2366     0415  07C1               	addwf	Read_Keypad@row+1,f
  2367     0416  2B82               	goto	l1493
  2368     0417                     l1531:
  2369                           
  2370                           ;env_maestro.c: 311:     return 0;
  2371     0417  3000               	movlw	0
  2372     0418                     l179:
  2373     0418  0008               	return
  2374     0419                     __end_of_Read_Keypad:
  2375                           
  2376                           	psect	text5
  2377     0FBF                     __ptext5:	
  2378 ;; *************** function _Prepare_LCD_Pins *****************
  2379 ;; Defined at:
  2380 ;;		line 316 in file "env_maestro.c"
  2381 ;; Parameters:    Size  Location     Type
  2382 ;;		None
  2383 ;; Auto vars:     Size  Location     Type
  2384 ;;		None
  2385 ;; Return value:  Size  Location     Type
  2386 ;;                  1    wreg      void 
  2387 ;; Registers used:
  2388 ;;		status,2
  2389 ;; Tracked objects:
  2390 ;;		On entry : 0/0
  2391 ;;		On exit  : 0/0
  2392 ;;		Unchanged: 0/0
  2393 ;; Data sizes:     COMMON   BANK0   BANK1
  2394 ;;      Params:         0       0       0
  2395 ;;      Locals:         0       0       0
  2396 ;;      Temps:          0       0       0
  2397 ;;      Totals:         0       0       0
  2398 ;;Total ram usage:        0 bytes
  2399 ;; Hardware stack levels used: 1
  2400 ;; Hardware stack levels required when called: 3
  2401 ;; This function calls:
  2402 ;;		Nothing
  2403 ;; This function is called by:
  2404 ;;		_main
  2405 ;; This function uses a non-reentrant model
  2406 ;;
  2407                           
  2408     0FBF                     _Prepare_LCD_Pins:	
  2409                           ;psect for function _Prepare_LCD_Pins
  2410                           
  2411     0FBF                     l1547:	
  2412                           ;incstack = 0
  2413                           ; Regs used in _Prepare_LCD_Pins: [status,2]
  2414                           
  2415                           
  2416                           ;env_maestro.c: 318:     TRISB = 0x00;
  2417     0FBF  1683               	bsf	3,5	;RP0=1, select bank1
  2418     0FC0  1303               	bcf	3,6	;RP1=0, select bank1
  2419     0FC1  0186               	clrf	6	;volatile
  2420     0FC2                     l182:
  2421     0FC2  0008               	return
  2422     0FC3                     __end_of_Prepare_LCD_Pins:
  2423                           
  2424                           	psect	text6
  2425     0FE1                     __ptext6:	
  2426 ;; *************** function _Prepare_Keypad_Pins *****************
  2427 ;; Defined at:
  2428 ;;		line 321 in file "env_maestro.c"
  2429 ;; Parameters:    Size  Location     Type
  2430 ;;		None
  2431 ;; Auto vars:     Size  Location     Type
  2432 ;;		None
  2433 ;; Return value:  Size  Location     Type
  2434 ;;                  1    wreg      void 
  2435 ;; Registers used:
  2436 ;;		wreg
  2437 ;; Tracked objects:
  2438 ;;		On entry : 0/0
  2439 ;;		On exit  : 0/0
  2440 ;;		Unchanged: 0/0
  2441 ;; Data sizes:     COMMON   BANK0   BANK1
  2442 ;;      Params:         0       0       0
  2443 ;;      Locals:         0       0       0
  2444 ;;      Temps:          0       0       0
  2445 ;;      Totals:         0       0       0
  2446 ;;Total ram usage:        0 bytes
  2447 ;; Hardware stack levels used: 1
  2448 ;; Hardware stack levels required when called: 3
  2449 ;; This function calls:
  2450 ;;		Nothing
  2451 ;; This function is called by:
  2452 ;;		_main
  2453 ;; This function uses a non-reentrant model
  2454 ;;
  2455                           
  2456     0FE1                     _Prepare_Keypad_Pins:	
  2457                           ;psect for function _Prepare_Keypad_Pins
  2458                           
  2459     0FE1                     l1489:	
  2460                           ;incstack = 0
  2461                           ; Regs used in _Prepare_Keypad_Pins: [wreg]
  2462                           
  2463                           
  2464                           ;env_maestro.c: 323:     TRISB = 0xF0;
  2465     0FE1  30F0               	movlw	240
  2466     0FE2  1683               	bsf	3,5	;RP0=1, select bank1
  2467     0FE3  1303               	bcf	3,6	;RP1=0, select bank1
  2468     0FE4  0086               	movwf	6	;volatile
  2469                           
  2470                           ;env_maestro.c: 324:     PORTB = 0x0F;
  2471     0FE5  300F               	movlw	15
  2472     0FE6  1283               	bcf	3,5	;RP0=0, select bank0
  2473     0FE7  1303               	bcf	3,6	;RP1=0, select bank0
  2474     0FE8  0086               	movwf	6	;volatile
  2475     0FE9                     l185:
  2476     0FE9  0008               	return
  2477     0FEA                     __end_of_Prepare_Keypad_Pins:
  2478                           
  2479                           	psect	text7
  2480     072A                     __ptext7:	
  2481 ;; *************** function _LCD_setCursor *****************
  2482 ;; Defined at:
  2483 ;;		line 262 in file "env_maestro.c"
  2484 ;; Parameters:    Size  Location     Type
  2485 ;;  row             1    wreg     unsigned char 
  2486 ;;  column          1   33[BANK0 ] unsigned char 
  2487 ;; Auto vars:     Size  Location     Type
  2488 ;;  row             1   34[BANK0 ] unsigned char 
  2489 ;;  position        1   37[BANK0 ] unsigned char 
  2490 ;; Return value:  Size  Location     Type
  2491 ;;                  1    wreg      void 
  2492 ;; Registers used:
  2493 ;;		wreg, status,2, status,0, btemp+1, pclath, cstack
  2494 ;; Tracked objects:
  2495 ;;		On entry : 0/0
  2496 ;;		On exit  : 0/0
  2497 ;;		Unchanged: 0/0
  2498 ;; Data sizes:     COMMON   BANK0   BANK1
  2499 ;;      Params:         0       1       0
  2500 ;;      Locals:         0       4       0
  2501 ;;      Temps:          0       0       0
  2502 ;;      Totals:         0       5       0
  2503 ;;Total ram usage:        5 bytes
  2504 ;; Hardware stack levels used: 1
  2505 ;; Hardware stack levels required when called: 4
  2506 ;; This function calls:
  2507 ;;		_LCD_command
  2508 ;; This function is called by:
  2509 ;;		_main
  2510 ;; This function uses a non-reentrant model
  2511 ;;
  2512                           
  2513     072A                     _LCD_setCursor:	
  2514                           ;psect for function _LCD_setCursor
  2515                           
  2516                           
  2517                           ;incstack = 0
  2518                           ; Regs used in _LCD_setCursor: [wreg+status,2+status,0+btemp+1+pclath+cstack]
  2519                           ;LCD_setCursor@row stored from wreg
  2520     072A  1283               	bcf	3,5	;RP0=0, select bank0
  2521     072B  1303               	bcf	3,6	;RP1=0, select bank0
  2522     072C  00C2               	movwf	LCD_setCursor@row
  2523     072D                     l1553:
  2524                           
  2525                           ;env_maestro.c: 263:     unsigned char position = (row == 1) ? 0x80 : 0xC0;
  2526     072D  0342               	decf	LCD_setCursor@row,w
  2527     072E  1903               	btfsc	3,2
  2528     072F  2F31               	goto	u1041
  2529     0730  2F32               	goto	u1040
  2530     0731                     u1041:
  2531     0731  2F37               	goto	l1557
  2532     0732                     u1040:
  2533     0732                     l1555:
  2534     0732  30C0               	movlw	192
  2535     0733  00C3               	movwf	_LCD_setCursor$302
  2536     0734  3000               	movlw	0
  2537     0735  00C4               	movwf	_LCD_setCursor$302+1
  2538     0736  2F3B               	goto	l158
  2539     0737                     l1557:
  2540     0737  3080               	movlw	128
  2541     0738  00C3               	movwf	_LCD_setCursor$302
  2542     0739  3000               	movlw	0
  2543     073A  00C4               	movwf	_LCD_setCursor$302+1
  2544     073B                     l158:
  2545     073B  0843               	movf	_LCD_setCursor$302,w
  2546     073C  00C5               	movwf	LCD_setCursor@position
  2547     073D                     l1559:
  2548                           
  2549                           ;env_maestro.c: 264:     position += column;
  2550     073D  0841               	movf	LCD_setCursor@column,w
  2551     073E  00FF               	movwf	btemp+1
  2552     073F  087F               	movf	btemp+1,w
  2553     0740  07C5               	addwf	LCD_setCursor@position,f
  2554     0741                     l1561:
  2555                           
  2556                           ;env_maestro.c: 265:     LCD_command(position);
  2557     0741  0845               	movf	LCD_setCursor@position,w
  2558     0742  118A  2779  118A   	fcall	_LCD_command
  2559     0745                     l159:
  2560     0745  0008               	return
  2561     0746                     __end_of_LCD_setCursor:
  2562                           
  2563                           	psect	text8
  2564     06C8                     __ptext8:	
  2565 ;; *************** function _LCD_print *****************
  2566 ;; Defined at:
  2567 ;;		line 268 in file "env_maestro.c"
  2568 ;; Parameters:    Size  Location     Type
  2569 ;;  string          2   33[BANK0 ] PTR const unsigned char 
  2570 ;;		 -> STR_6(16), STR_5(13), ISR@receiveBuffer(16), STR_4(16), 
  2571 ;;		 -> STR_3(15), STR_2(17), STR_1(16), displayString(17), 
  2572 ;; Auto vars:     Size  Location     Type
  2573 ;;		None
  2574 ;; Return value:  Size  Location     Type
  2575 ;;                  1    wreg      void 
  2576 ;; Registers used:
  2577 ;;		wreg, fsr0l, fsr0h, status,2, status,0, btemp+1, pclath, cstack
  2578 ;; Tracked objects:
  2579 ;;		On entry : 0/0
  2580 ;;		On exit  : 0/0
  2581 ;;		Unchanged: 0/0
  2582 ;; Data sizes:     COMMON   BANK0   BANK1
  2583 ;;      Params:         0       2       0
  2584 ;;      Locals:         0       0       0
  2585 ;;      Temps:          0       0       0
  2586 ;;      Totals:         0       2       0
  2587 ;;Total ram usage:        2 bytes
  2588 ;; Hardware stack levels used: 1
  2589 ;; Hardware stack levels required when called: 4
  2590 ;; This function calls:
  2591 ;;		_LCD_data
  2592 ;; This function is called by:
  2593 ;;		_main
  2594 ;; This function uses a non-reentrant model
  2595 ;;
  2596                           
  2597     06C8                     _LCD_print:	
  2598                           ;psect for function _LCD_print
  2599                           
  2600     06C8                     l1563:	
  2601                           ;incstack = 0
  2602                           ; Regs used in _LCD_print: [wreg-fsr0h+status,2+status,0+btemp+1+pclath+cstack]
  2603                           
  2604                           
  2605                           ;env_maestro.c: 269:     while(*string) {
  2606     06C8  2EDB               	goto	l1569
  2607     06C9                     l1565:
  2608                           
  2609                           ;env_maestro.c: 270:         LCD_data(*string++);
  2610     06C9  0842               	movf	LCD_print@string+1,w
  2611     06CA  00FF               	movwf	btemp+1
  2612     06CB  0841               	movf	LCD_print@string,w
  2613     06CC  0084               	movwf	4
  2614     06CD  118A  2419  118A   	fcall	stringtab
  2615     06D0  118A  2762  118A   	fcall	_LCD_data
  2616     06D3                     l1567:
  2617     06D3  3001               	movlw	1
  2618     06D4  1283               	bcf	3,5	;RP0=0, select bank0
  2619     06D5  1303               	bcf	3,6	;RP1=0, select bank0
  2620     06D6  07C1               	addwf	LCD_print@string,f
  2621     06D7  1803               	skipnc
  2622     06D8  0AC2               	incf	LCD_print@string+1,f
  2623     06D9  3000               	movlw	0
  2624     06DA  07C2               	addwf	LCD_print@string+1,f
  2625     06DB                     l1569:
  2626                           
  2627                           ;env_maestro.c: 269:     while(*string) {
  2628     06DB  1283               	bcf	3,5	;RP0=0, select bank0
  2629     06DC  1303               	bcf	3,6	;RP1=0, select bank0
  2630     06DD  0842               	movf	LCD_print@string+1,w
  2631     06DE  00FF               	movwf	btemp+1
  2632     06DF  0841               	movf	LCD_print@string,w
  2633     06E0  0084               	movwf	4
  2634     06E1  118A  2419  118A   	fcall	stringtab
  2635     06E4  3A00               	xorlw	0
  2636     06E5  1D03               	skipz
  2637     06E6  2EE8               	goto	u1051
  2638     06E7  2EE9               	goto	u1050
  2639     06E8                     u1051:
  2640     06E8  2EC9               	goto	l1565
  2641     06E9                     u1050:
  2642     06E9                     l165:
  2643     06E9  0008               	return
  2644     06EA                     __end_of_LCD_print:
  2645                           
  2646                           	psect	text9
  2647     0762                     __ptext9:	
  2648 ;; *************** function _LCD_data *****************
  2649 ;; Defined at:
  2650 ;;		line 225 in file "env_maestro.c"
  2651 ;; Parameters:    Size  Location     Type
  2652 ;;  data            1    wreg     unsigned char 
  2653 ;; Auto vars:     Size  Location     Type
  2654 ;;  data            1   32[BANK0 ] unsigned char 
  2655 ;; Return value:  Size  Location     Type
  2656 ;;                  1    wreg      void 
  2657 ;; Registers used:
  2658 ;;		wreg
  2659 ;; Tracked objects:
  2660 ;;		On entry : 0/0
  2661 ;;		On exit  : 0/0
  2662 ;;		Unchanged: 0/0
  2663 ;; Data sizes:     COMMON   BANK0   BANK1
  2664 ;;      Params:         0       0       0
  2665 ;;      Locals:         0       1       0
  2666 ;;      Temps:          0       2       0
  2667 ;;      Totals:         0       3       0
  2668 ;;Total ram usage:        3 bytes
  2669 ;; Hardware stack levels used: 1
  2670 ;; Hardware stack levels required when called: 3
  2671 ;; This function calls:
  2672 ;;		Nothing
  2673 ;; This function is called by:
  2674 ;;		_LCD_print
  2675 ;; This function uses a non-reentrant model
  2676 ;;
  2677                           
  2678     0762                     _LCD_data:	
  2679                           ;psect for function _LCD_data
  2680                           
  2681                           
  2682                           ;incstack = 0
  2683                           ; Regs used in _LCD_data: [wreg]
  2684                           ;LCD_data@data stored from wreg
  2685     0762  1283               	bcf	3,5	;RP0=0, select bank0
  2686     0763  1303               	bcf	3,6	;RP1=0, select bank0
  2687     0764  00C0               	movwf	LCD_data@data
  2688     0765                     l1357:
  2689                           
  2690                           ;env_maestro.c: 226:     RA0 = 1;
  2691     0765  1405               	bsf	5,0	;volatile
  2692                           
  2693                           ;env_maestro.c: 227:     RA1 = 0;
  2694     0766  1085               	bcf	5,1	;volatile
  2695     0767                     l1359:
  2696                           
  2697                           ;env_maestro.c: 228:     PORTB = data;
  2698     0767  0840               	movf	LCD_data@data,w
  2699     0768  0086               	movwf	6	;volatile
  2700     0769                     l1361:
  2701                           
  2702                           ;env_maestro.c: 229:     RA2 = 1;
  2703     0769  1505               	bsf	5,2	;volatile
  2704                           
  2705                           ;env_maestro.c: 230:     _delay((unsigned long)((2)*(4000000/4000.0)));
  2706     076A  3003               	movlw	3
  2707     076B  1283               	bcf	3,5	;RP0=0, select bank0
  2708     076C  1303               	bcf	3,6	;RP1=0, select bank0
  2709     076D  00BF               	movwf	??_LCD_data+1
  2710     076E  3097               	movlw	151
  2711     076F  00BE               	movwf	??_LCD_data
  2712     0770                     u1797:
  2713     0770  0BBE               	decfsz	??_LCD_data,f
  2714     0771  2F70               	goto	u1797
  2715     0772  0BBF               	decfsz	??_LCD_data+1,f
  2716     0773  2F70               	goto	u1797
  2717     0774  0000               	nop
  2718     0775                     l1363:
  2719                           
  2720                           ;env_maestro.c: 231:     RA2 = 0;
  2721     0775  1283               	bcf	3,5	;RP0=0, select bank0
  2722     0776  1303               	bcf	3,6	;RP1=0, select bank0
  2723     0777  1105               	bcf	5,2	;volatile
  2724     0778                     l146:
  2725     0778  0008               	return
  2726     0779                     __end_of_LCD_data:
  2727                           
  2728                           	psect	text10
  2729     05DE                     __ptext10:	
  2730 ;; *************** function _LCD_init *****************
  2731 ;; Defined at:
  2732 ;;		line 234 in file "env_maestro.c"
  2733 ;; Parameters:    Size  Location     Type
  2734 ;;		None
  2735 ;; Auto vars:     Size  Location     Type
  2736 ;;		None
  2737 ;; Return value:  Size  Location     Type
  2738 ;;                  1    wreg      void 
  2739 ;; Registers used:
  2740 ;;		wreg, status,2, status,0, pclath, cstack
  2741 ;; Tracked objects:
  2742 ;;		On entry : 0/0
  2743 ;;		On exit  : 0/0
  2744 ;;		Unchanged: 0/0
  2745 ;; Data sizes:     COMMON   BANK0   BANK1
  2746 ;;      Params:         0       0       0
  2747 ;;      Locals:         0       0       0
  2748 ;;      Temps:          0       2       0
  2749 ;;      Totals:         0       2       0
  2750 ;;Total ram usage:        2 bytes
  2751 ;; Hardware stack levels used: 1
  2752 ;; Hardware stack levels required when called: 4
  2753 ;; This function calls:
  2754 ;;		_LCD_command
  2755 ;; This function is called by:
  2756 ;;		_main
  2757 ;; This function uses a non-reentrant model
  2758 ;;
  2759                           
  2760     05DE                     _LCD_init:	
  2761                           ;psect for function _LCD_init
  2762                           
  2763     05DE                     l1453:	
  2764                           ;incstack = 0
  2765                           ; Regs used in _LCD_init: [wreg+status,2+status,0+pclath+cstack]
  2766                           
  2767                           
  2768                           ;env_maestro.c: 236:     ADCON1 = 0x07;
  2769     05DE  3007               	movlw	7
  2770     05DF  1683               	bsf	3,5	;RP0=1, select bank1
  2771     05E0  1303               	bcf	3,6	;RP1=0, select bank1
  2772     05E1  009F               	movwf	31	;volatile
  2773     05E2                     l1455:
  2774                           
  2775                           ;env_maestro.c: 237:     TRISA = 0x00;
  2776     05E2  0185               	clrf	5	;volatile
  2777     05E3                     l1457:
  2778                           
  2779                           ;env_maestro.c: 238:     TRISB = 0x00;
  2780     05E3  0186               	clrf	6	;volatile
  2781                           
  2782                           ;env_maestro.c: 241:     _delay((unsigned long)((20)*(4000000/4000.0)));
  2783     05E4  301A               	movlw	26
  2784     05E5  1283               	bcf	3,5	;RP0=0, select bank0
  2785     05E6  1303               	bcf	3,6	;RP1=0, select bank0
  2786     05E7  00C2               	movwf	??_LCD_init+1
  2787     05E8  30F8               	movlw	248
  2788     05E9  00C1               	movwf	??_LCD_init
  2789     05EA                     u1807:
  2790     05EA  0BC1               	decfsz	??_LCD_init,f
  2791     05EB  2DEA               	goto	u1807
  2792     05EC  0BC2               	decfsz	??_LCD_init+1,f
  2793     05ED  2DEA               	goto	u1807
  2794     05EE                     l1459:
  2795                           
  2796                           ;env_maestro.c: 244:     LCD_command(0x38);
  2797     05EE  3038               	movlw	56
  2798     05EF  118A  2779  118A   	fcall	_LCD_command
  2799     05F2                     l1461:
  2800                           
  2801                           ;env_maestro.c: 245:     _delay((unsigned long)((5)*(4000000/4000.0)));
  2802     05F2  3007               	movlw	7
  2803     05F3  1283               	bcf	3,5	;RP0=0, select bank0
  2804     05F4  1303               	bcf	3,6	;RP1=0, select bank0
  2805     05F5  00C2               	movwf	??_LCD_init+1
  2806     05F6  307C               	movlw	124
  2807     05F7  00C1               	movwf	??_LCD_init
  2808     05F8                     u1817:
  2809     05F8  0BC1               	decfsz	??_LCD_init,f
  2810     05F9  2DF8               	goto	u1817
  2811     05FA  0BC2               	decfsz	??_LCD_init+1,f
  2812     05FB  2DF8               	goto	u1817
  2813     05FC  2DFD               	nop2
  2814                           
  2815                           ;env_maestro.c: 247:     LCD_command(0x0F);
  2816     05FD  300F               	movlw	15
  2817     05FE  118A  2779  118A   	fcall	_LCD_command
  2818     0601                     l1463:
  2819                           
  2820                           ;env_maestro.c: 248:     _delay((unsigned long)((5)*(4000000/4000.0)));
  2821     0601  3007               	movlw	7
  2822     0602  1283               	bcf	3,5	;RP0=0, select bank0
  2823     0603  1303               	bcf	3,6	;RP1=0, select bank0
  2824     0604  00C2               	movwf	??_LCD_init+1
  2825     0605  307C               	movlw	124
  2826     0606  00C1               	movwf	??_LCD_init
  2827     0607                     u1827:
  2828     0607  0BC1               	decfsz	??_LCD_init,f
  2829     0608  2E07               	goto	u1827
  2830     0609  0BC2               	decfsz	??_LCD_init+1,f
  2831     060A  2E07               	goto	u1827
  2832     060B  2E0C               	nop2
  2833     060C                     l1465:
  2834                           
  2835                           ;env_maestro.c: 250:     LCD_command(0x01);
  2836     060C  3001               	movlw	1
  2837     060D  118A  2779  118A   	fcall	_LCD_command
  2838                           
  2839                           ;env_maestro.c: 251:     _delay((unsigned long)((2)*(4000000/4000.0)));
  2840     0610  3003               	movlw	3
  2841     0611  1283               	bcf	3,5	;RP0=0, select bank0
  2842     0612  1303               	bcf	3,6	;RP1=0, select bank0
  2843     0613  00C2               	movwf	??_LCD_init+1
  2844     0614  3097               	movlw	151
  2845     0615  00C1               	movwf	??_LCD_init
  2846     0616                     u1837:
  2847     0616  0BC1               	decfsz	??_LCD_init,f
  2848     0617  2E16               	goto	u1837
  2849     0618  0BC2               	decfsz	??_LCD_init+1,f
  2850     0619  2E16               	goto	u1837
  2851     061A  0000               	nop
  2852     061B                     l1467:
  2853                           
  2854                           ;env_maestro.c: 253:     LCD_command(0x02);
  2855     061B  3002               	movlw	2
  2856     061C  118A  2779  118A   	fcall	_LCD_command
  2857     061F                     l1469:
  2858                           
  2859                           ;env_maestro.c: 254:     _delay((unsigned long)((2)*(4000000/4000.0)));
  2860     061F  3003               	movlw	3
  2861     0620  1283               	bcf	3,5	;RP0=0, select bank0
  2862     0621  1303               	bcf	3,6	;RP1=0, select bank0
  2863     0622  00C2               	movwf	??_LCD_init+1
  2864     0623  3097               	movlw	151
  2865     0624  00C1               	movwf	??_LCD_init
  2866     0625                     u1847:
  2867     0625  0BC1               	decfsz	??_LCD_init,f
  2868     0626  2E25               	goto	u1847
  2869     0627  0BC2               	decfsz	??_LCD_init+1,f
  2870     0628  2E25               	goto	u1847
  2871     0629  0000               	nop
  2872     062A                     l149:
  2873     062A  0008               	return
  2874     062B                     __end_of_LCD_init:
  2875                           
  2876                           	psect	text11
  2877     07D2                     __ptext11:	
  2878 ;; *************** function _LCD_clear *****************
  2879 ;; Defined at:
  2880 ;;		line 257 in file "env_maestro.c"
  2881 ;; Parameters:    Size  Location     Type
  2882 ;;		None
  2883 ;; Auto vars:     Size  Location     Type
  2884 ;;		None
  2885 ;; Return value:  Size  Location     Type
  2886 ;;                  1    wreg      void 
  2887 ;; Registers used:
  2888 ;;		wreg, status,2, status,0, pclath, cstack
  2889 ;; Tracked objects:
  2890 ;;		On entry : 0/0
  2891 ;;		On exit  : 0/0
  2892 ;;		Unchanged: 0/0
  2893 ;; Data sizes:     COMMON   BANK0   BANK1
  2894 ;;      Params:         0       0       0
  2895 ;;      Locals:         0       0       0
  2896 ;;      Temps:          0       2       0
  2897 ;;      Totals:         0       2       0
  2898 ;;Total ram usage:        2 bytes
  2899 ;; Hardware stack levels used: 1
  2900 ;; Hardware stack levels required when called: 4
  2901 ;; This function calls:
  2902 ;;		_LCD_command
  2903 ;; This function is called by:
  2904 ;;		_main
  2905 ;; This function uses a non-reentrant model
  2906 ;;
  2907                           
  2908     07D2                     _LCD_clear:	
  2909                           ;psect for function _LCD_clear
  2910                           
  2911     07D2                     l1549:	
  2912                           ;incstack = 0
  2913                           ; Regs used in _LCD_clear: [wreg+status,2+status,0+pclath+cstack]
  2914                           
  2915                           
  2916                           ;env_maestro.c: 258:     LCD_command(0x01);
  2917     07D2  3001               	movlw	1
  2918     07D3  118A  2779  118A   	fcall	_LCD_command
  2919     07D6                     l1551:
  2920                           
  2921                           ;env_maestro.c: 259:     _delay((unsigned long)((2)*(4000000/4000.0)));
  2922     07D6  3003               	movlw	3
  2923     07D7  1283               	bcf	3,5	;RP0=0, select bank0
  2924     07D8  1303               	bcf	3,6	;RP1=0, select bank0
  2925     07D9  00C2               	movwf	??_LCD_clear+1
  2926     07DA  3097               	movlw	151
  2927     07DB  00C1               	movwf	??_LCD_clear
  2928     07DC                     u1857:
  2929     07DC  0BC1               	decfsz	??_LCD_clear,f
  2930     07DD  2FDC               	goto	u1857
  2931     07DE  0BC2               	decfsz	??_LCD_clear+1,f
  2932     07DF  2FDC               	goto	u1857
  2933     07E0  0000               	nop
  2934     07E1                     l152:
  2935     07E1  0008               	return
  2936     07E2                     __end_of_LCD_clear:
  2937                           
  2938                           	psect	text12
  2939     0779                     __ptext12:	
  2940 ;; *************** function _LCD_command *****************
  2941 ;; Defined at:
  2942 ;;		line 216 in file "env_maestro.c"
  2943 ;; Parameters:    Size  Location     Type
  2944 ;;  command         1    wreg     unsigned char 
  2945 ;; Auto vars:     Size  Location     Type
  2946 ;;  command         1   32[BANK0 ] unsigned char 
  2947 ;; Return value:  Size  Location     Type
  2948 ;;                  1    wreg      void 
  2949 ;; Registers used:
  2950 ;;		wreg
  2951 ;; Tracked objects:
  2952 ;;		On entry : 0/0
  2953 ;;		On exit  : 0/0
  2954 ;;		Unchanged: 0/0
  2955 ;; Data sizes:     COMMON   BANK0   BANK1
  2956 ;;      Params:         0       0       0
  2957 ;;      Locals:         0       1       0
  2958 ;;      Temps:          0       2       0
  2959 ;;      Totals:         0       3       0
  2960 ;;Total ram usage:        3 bytes
  2961 ;; Hardware stack levels used: 1
  2962 ;; Hardware stack levels required when called: 3
  2963 ;; This function calls:
  2964 ;;		Nothing
  2965 ;; This function is called by:
  2966 ;;		_LCD_init
  2967 ;;		_LCD_clear
  2968 ;;		_LCD_setCursor
  2969 ;; This function uses a non-reentrant model
  2970 ;;
  2971                           
  2972     0779                     _LCD_command:	
  2973                           ;psect for function _LCD_command
  2974                           
  2975                           
  2976                           ;incstack = 0
  2977                           ; Regs used in _LCD_command: [wreg]
  2978                           ;LCD_command@command stored from wreg
  2979     0779  1283               	bcf	3,5	;RP0=0, select bank0
  2980     077A  1303               	bcf	3,6	;RP1=0, select bank0
  2981     077B  00C0               	movwf	LCD_command@command
  2982     077C                     l1349:
  2983                           
  2984                           ;env_maestro.c: 217:     RA0 = 0;
  2985     077C  1005               	bcf	5,0	;volatile
  2986                           
  2987                           ;env_maestro.c: 218:     RA1 = 0;
  2988     077D  1085               	bcf	5,1	;volatile
  2989     077E                     l1351:
  2990                           
  2991                           ;env_maestro.c: 219:     PORTB = command;
  2992     077E  0840               	movf	LCD_command@command,w
  2993     077F  0086               	movwf	6	;volatile
  2994     0780                     l1353:
  2995                           
  2996                           ;env_maestro.c: 220:     RA2 = 1;
  2997     0780  1505               	bsf	5,2	;volatile
  2998                           
  2999                           ;env_maestro.c: 221:     _delay((unsigned long)((2)*(4000000/4000.0)));
  3000     0781  3003               	movlw	3
  3001     0782  1283               	bcf	3,5	;RP0=0, select bank0
  3002     0783  1303               	bcf	3,6	;RP1=0, select bank0
  3003     0784  00BF               	movwf	??_LCD_command+1
  3004     0785  3097               	movlw	151
  3005     0786  00BE               	movwf	??_LCD_command
  3006     0787                     u1867:
  3007     0787  0BBE               	decfsz	??_LCD_command,f
  3008     0788  2F87               	goto	u1867
  3009     0789  0BBF               	decfsz	??_LCD_command+1,f
  3010     078A  2F87               	goto	u1867
  3011     078B  0000               	nop
  3012     078C                     l1355:
  3013                           
  3014                           ;env_maestro.c: 222:     RA2 = 0;
  3015     078C  1283               	bcf	3,5	;RP0=0, select bank0
  3016     078D  1303               	bcf	3,6	;RP1=0, select bank0
  3017     078E  1105               	bcf	5,2	;volatile
  3018     078F                     l143:
  3019     078F  0008               	return
  3020     0790                     __end_of_LCD_command:
  3021                           
  3022                           	psect	text13
  3023     0FF5                     __ptext13:	
  3024 ;; *************** function _Keyboard_init *****************
  3025 ;; Defined at:
  3026 ;;		line 276 in file "env_maestro.c"
  3027 ;; Parameters:    Size  Location     Type
  3028 ;;		None
  3029 ;; Auto vars:     Size  Location     Type
  3030 ;;		None
  3031 ;; Return value:  Size  Location     Type
  3032 ;;                  1    wreg      void 
  3033 ;; Registers used:
  3034 ;;		wreg, status,2
  3035 ;; Tracked objects:
  3036 ;;		On entry : 0/0
  3037 ;;		On exit  : 0/0
  3038 ;;		Unchanged: 0/0
  3039 ;; Data sizes:     COMMON   BANK0   BANK1
  3040 ;;      Params:         0       0       0
  3041 ;;      Locals:         0       0       0
  3042 ;;      Temps:          0       0       0
  3043 ;;      Totals:         0       0       0
  3044 ;;Total ram usage:        0 bytes
  3045 ;; Hardware stack levels used: 1
  3046 ;; Hardware stack levels required when called: 3
  3047 ;; This function calls:
  3048 ;;		Nothing
  3049 ;; This function is called by:
  3050 ;;		_main
  3051 ;; This function uses a non-reentrant model
  3052 ;;
  3053                           
  3054     0FF5                     _Keyboard_init:	
  3055                           ;psect for function _Keyboard_init
  3056                           
  3057     0FF5                     l1471:	
  3058                           ;incstack = 0
  3059                           ; Regs used in _Keyboard_init: [wreg+status,2]
  3060                           
  3061                           
  3062                           ;env_maestro.c: 277:     TRISAbits.TRISA3 = 0;
  3063     0FF5  1683               	bsf	3,5	;RP0=1, select bank1
  3064     0FF6  1303               	bcf	3,6	;RP1=0, select bank1
  3065     0FF7  1185               	bcf	5,3	;volatile
  3066     0FF8                     l1473:
  3067                           
  3068                           ;env_maestro.c: 278:     TRISA = 0x00;
  3069     0FF8  0185               	clrf	5	;volatile
  3070     0FF9                     l1475:
  3071                           
  3072                           ;env_maestro.c: 279:     TRISB = 0x0F;
  3073     0FF9  300F               	movlw	15
  3074     0FFA  0086               	movwf	6	;volatile
  3075     0FFB                     l1477:
  3076                           
  3077                           ;env_maestro.c: 280:     PORTB = 0xF0;
  3078     0FFB  30F0               	movlw	240
  3079     0FFC  1283               	bcf	3,5	;RP0=0, select bank0
  3080     0FFD  1303               	bcf	3,6	;RP1=0, select bank0
  3081     0FFE  0086               	movwf	6	;volatile
  3082     0FFF                     l168:
  3083     0FFF  0008               	return
  3084     1000                     __end_of_Keyboard_init:
  3085                           
  3086                           	psect	text14
  3087     07BE                     __ptext14:	
  3088 ;; *************** function _I2C_Slave_Init *****************
  3089 ;; Defined at:
  3090 ;;		line 357 in file "env_maestro.c"
  3091 ;; Parameters:    Size  Location     Type
  3092 ;;  address         1    wreg     unsigned char 
  3093 ;; Auto vars:     Size  Location     Type
  3094 ;;  address         1   30[BANK0 ] unsigned char 
  3095 ;; Return value:  Size  Location     Type
  3096 ;;                  1    wreg      void 
  3097 ;; Registers used:
  3098 ;;		wreg, status,2
  3099 ;; Tracked objects:
  3100 ;;		On entry : 0/0
  3101 ;;		On exit  : 0/0
  3102 ;;		Unchanged: 0/0
  3103 ;; Data sizes:     COMMON   BANK0   BANK1
  3104 ;;      Params:         0       0       0
  3105 ;;      Locals:         0       1       0
  3106 ;;      Temps:          0       0       0
  3107 ;;      Totals:         0       1       0
  3108 ;;Total ram usage:        1 bytes
  3109 ;; Hardware stack levels used: 1
  3110 ;; Hardware stack levels required when called: 3
  3111 ;; This function calls:
  3112 ;;		Nothing
  3113 ;; This function is called by:
  3114 ;;		_main
  3115 ;; This function uses a non-reentrant model
  3116 ;;
  3117                           
  3118     07BE                     _I2C_Slave_Init:	
  3119                           ;psect for function _I2C_Slave_Init
  3120                           
  3121                           
  3122                           ;incstack = 0
  3123                           ; Regs used in _I2C_Slave_Init: [wreg+status,2]
  3124                           ;I2C_Slave_Init@address stored from wreg
  3125     07BE  1283               	bcf	3,5	;RP0=0, select bank0
  3126     07BF  1303               	bcf	3,6	;RP1=0, select bank0
  3127     07C0  00BE               	movwf	I2C_Slave_Init@address
  3128     07C1                     l1579:
  3129                           
  3130                           ;env_maestro.c: 358:     SSPADD = address;
  3131     07C1  083E               	movf	I2C_Slave_Init@address,w
  3132     07C2  1683               	bsf	3,5	;RP0=1, select bank1
  3133     07C3  1303               	bcf	3,6	;RP1=0, select bank1
  3134     07C4  0093               	movwf	19	;volatile
  3135                           
  3136                           ;env_maestro.c: 359:     SSPCON = 0x36;
  3137     07C5  3036               	movlw	54
  3138     07C6  1283               	bcf	3,5	;RP0=0, select bank0
  3139     07C7  1303               	bcf	3,6	;RP1=0, select bank0
  3140     07C8  0094               	movwf	20	;volatile
  3141     07C9                     l1581:
  3142                           
  3143                           ;env_maestro.c: 360:     SSPIE = 1;
  3144     07C9  1683               	bsf	3,5	;RP0=1, select bank1
  3145     07CA  1303               	bcf	3,6	;RP1=0, select bank1
  3146     07CB  158C               	bsf	12,3	;volatile
  3147     07CC                     l1583:
  3148                           
  3149                           ;env_maestro.c: 361:     PEIE = 1;
  3150     07CC  170B               	bsf	11,6	;volatile
  3151     07CD                     l1585:
  3152                           
  3153                           ;env_maestro.c: 362:     GIE = 1;
  3154     07CD  178B               	bsf	11,7	;volatile
  3155     07CE                     l1587:
  3156                           
  3157                           ;env_maestro.c: 363:     SSPSTAT = 0x00;
  3158     07CE  0194               	clrf	20	;volatile
  3159     07CF                     l1589:
  3160                           
  3161                           ;env_maestro.c: 364:     TRISC3 = 1;
  3162     07CF  1587               	bsf	7,3	;volatile
  3163     07D0                     l1591:
  3164                           
  3165                           ;env_maestro.c: 365:     TRISC4 = 1;
  3166     07D0  1607               	bsf	7,4	;volatile
  3167     07D1                     l206:
  3168     07D1  0008               	return
  3169     07D2                     __end_of_I2C_Slave_Init:
  3170                           
  3171                           	psect	text15
  3172     0FD1                     __ptext15:	
  3173 ;; *************** function _I2C_Master_Write *****************
  3174 ;; Defined at:
  3175 ;;		line 351 in file "env_maestro.c"
  3176 ;; Parameters:    Size  Location     Type
  3177 ;;  d               2   30[BANK0 ] unsigned int 
  3178 ;; Auto vars:     Size  Location     Type
  3179 ;;		None
  3180 ;; Return value:  Size  Location     Type
  3181 ;;                  1    wreg      void 
  3182 ;; Registers used:
  3183 ;;		wreg, status,2, status,0, pclath, cstack
  3184 ;; Tracked objects:
  3185 ;;		On entry : 0/0
  3186 ;;		On exit  : 0/0
  3187 ;;		Unchanged: 0/0
  3188 ;; Data sizes:     COMMON   BANK0   BANK1
  3189 ;;      Params:         0       2       0
  3190 ;;      Locals:         0       0       0
  3191 ;;      Temps:          0       0       0
  3192 ;;      Totals:         0       2       0
  3193 ;;Total ram usage:        2 bytes
  3194 ;; Hardware stack levels used: 1
  3195 ;; Hardware stack levels required when called: 4
  3196 ;; This function calls:
  3197 ;;		_I2C_Master_Wait
  3198 ;; This function is called by:
  3199 ;;		_main
  3200 ;; This function uses a non-reentrant model
  3201 ;;
  3202                           
  3203     0FD1                     _I2C_Master_Write:	
  3204                           ;psect for function _I2C_Master_Write
  3205                           
  3206     0FD1                     l1539:	
  3207                           ;incstack = 0
  3208                           ; Regs used in _I2C_Master_Write: [wreg+status,2+status,0+pclath+cstack]
  3209                           
  3210                           
  3211                           ;env_maestro.c: 352:     I2C_Master_Wait();
  3212     0FD1  118A  27F2  158A   	fcall	_I2C_Master_Wait
  3213     0FD4                     l1541:
  3214                           
  3215                           ;env_maestro.c: 353:     SSPBUF = (unsigned char)d;
  3216     0FD4  1283               	bcf	3,5	;RP0=0, select bank0
  3217     0FD5  1303               	bcf	3,6	;RP1=0, select bank0
  3218     0FD6  083E               	movf	I2C_Master_Write@d,w
  3219     0FD7  0093               	movwf	19	;volatile
  3220     0FD8                     l203:
  3221     0FD8  0008               	return
  3222     0FD9                     __end_of_I2C_Master_Write:
  3223                           
  3224                           	psect	text16
  3225     0FCA                     __ptext16:	
  3226 ;; *************** function _I2C_Master_Stop *****************
  3227 ;; Defined at:
  3228 ;;		line 346 in file "env_maestro.c"
  3229 ;; Parameters:    Size  Location     Type
  3230 ;;		None
  3231 ;; Auto vars:     Size  Location     Type
  3232 ;;		None
  3233 ;; Return value:  Size  Location     Type
  3234 ;;                  1    wreg      void 
  3235 ;; Registers used:
  3236 ;;		wreg, status,2, status,0, pclath, cstack
  3237 ;; Tracked objects:
  3238 ;;		On entry : 0/0
  3239 ;;		On exit  : 0/0
  3240 ;;		Unchanged: 0/0
  3241 ;; Data sizes:     COMMON   BANK0   BANK1
  3242 ;;      Params:         0       0       0
  3243 ;;      Locals:         0       0       0
  3244 ;;      Temps:          0       0       0
  3245 ;;      Totals:         0       0       0
  3246 ;;Total ram usage:        0 bytes
  3247 ;; Hardware stack levels used: 1
  3248 ;; Hardware stack levels required when called: 4
  3249 ;; This function calls:
  3250 ;;		_I2C_Master_Wait
  3251 ;; This function is called by:
  3252 ;;		_main
  3253 ;; This function uses a non-reentrant model
  3254 ;;
  3255                           
  3256     0FCA                     _I2C_Master_Stop:	
  3257                           ;psect for function _I2C_Master_Stop
  3258                           
  3259     0FCA                     l1543:	
  3260                           ;incstack = 0
  3261                           ; Regs used in _I2C_Master_Stop: [wreg+status,2+status,0+pclath+cstack]
  3262                           
  3263                           
  3264                           ;env_maestro.c: 347:     I2C_Master_Wait();
  3265     0FCA  118A  27F2  158A   	fcall	_I2C_Master_Wait
  3266     0FCD                     l1545:
  3267                           
  3268                           ;env_maestro.c: 348:     PEN = 1;
  3269     0FCD  1683               	bsf	3,5	;RP0=1, select bank1
  3270     0FCE  1303               	bcf	3,6	;RP1=0, select bank1
  3271     0FCF  1511               	bsf	17,2	;volatile
  3272     0FD0                     l200:
  3273     0FD0  0008               	return
  3274     0FD1                     __end_of_I2C_Master_Stop:
  3275                           
  3276                           	psect	text17
  3277     0FC3                     __ptext17:	
  3278 ;; *************** function _I2C_Master_Start *****************
  3279 ;; Defined at:
  3280 ;;		line 341 in file "env_maestro.c"
  3281 ;; Parameters:    Size  Location     Type
  3282 ;;		None
  3283 ;; Auto vars:     Size  Location     Type
  3284 ;;		None
  3285 ;; Return value:  Size  Location     Type
  3286 ;;                  1    wreg      void 
  3287 ;; Registers used:
  3288 ;;		wreg, status,2, status,0, pclath, cstack
  3289 ;; Tracked objects:
  3290 ;;		On entry : 0/0
  3291 ;;		On exit  : 0/0
  3292 ;;		Unchanged: 0/0
  3293 ;; Data sizes:     COMMON   BANK0   BANK1
  3294 ;;      Params:         0       0       0
  3295 ;;      Locals:         0       0       0
  3296 ;;      Temps:          0       0       0
  3297 ;;      Totals:         0       0       0
  3298 ;;Total ram usage:        0 bytes
  3299 ;; Hardware stack levels used: 1
  3300 ;; Hardware stack levels required when called: 4
  3301 ;; This function calls:
  3302 ;;		_I2C_Master_Wait
  3303 ;; This function is called by:
  3304 ;;		_main
  3305 ;; This function uses a non-reentrant model
  3306 ;;
  3307                           
  3308     0FC3                     _I2C_Master_Start:	
  3309                           ;psect for function _I2C_Master_Start
  3310                           
  3311     0FC3                     l1535:	
  3312                           ;incstack = 0
  3313                           ; Regs used in _I2C_Master_Start: [wreg+status,2+status,0+pclath+cstack]
  3314                           
  3315                           
  3316                           ;env_maestro.c: 342:     I2C_Master_Wait();
  3317     0FC3  118A  27F2  158A   	fcall	_I2C_Master_Wait
  3318     0FC6                     l1537:
  3319                           
  3320                           ;env_maestro.c: 343:     SEN = 1;
  3321     0FC6  1683               	bsf	3,5	;RP0=1, select bank1
  3322     0FC7  1303               	bcf	3,6	;RP1=0, select bank1
  3323     0FC8  1411               	bsf	17,0	;volatile
  3324     0FC9                     l197:
  3325     0FC9  0008               	return
  3326     0FCA                     __end_of_I2C_Master_Start:
  3327                           
  3328                           	psect	text18
  3329     07F2                     __ptext18:	
  3330 ;; *************** function _I2C_Master_Wait *****************
  3331 ;; Defined at:
  3332 ;;		line 337 in file "env_maestro.c"
  3333 ;; Parameters:    Size  Location     Type
  3334 ;;		None
  3335 ;; Auto vars:     Size  Location     Type
  3336 ;;		None
  3337 ;; Return value:  Size  Location     Type
  3338 ;;                  1    wreg      void 
  3339 ;; Registers used:
  3340 ;;		wreg, status,2
  3341 ;; Tracked objects:
  3342 ;;		On entry : 0/0
  3343 ;;		On exit  : 0/0
  3344 ;;		Unchanged: 0/0
  3345 ;; Data sizes:     COMMON   BANK0   BANK1
  3346 ;;      Params:         0       0       0
  3347 ;;      Locals:         0       0       0
  3348 ;;      Temps:          0       0       0
  3349 ;;      Totals:         0       0       0
  3350 ;;Total ram usage:        0 bytes
  3351 ;; Hardware stack levels used: 1
  3352 ;; Hardware stack levels required when called: 3
  3353 ;; This function calls:
  3354 ;;		Nothing
  3355 ;; This function is called by:
  3356 ;;		_I2C_Master_Start
  3357 ;;		_I2C_Master_Stop
  3358 ;;		_I2C_Master_Write
  3359 ;; This function uses a non-reentrant model
  3360 ;;
  3361                           
  3362     07F2                     _I2C_Master_Wait:	
  3363                           ;psect for function _I2C_Master_Wait
  3364                           
  3365     07F2                     l1365:	
  3366                           ;incstack = 0
  3367                           ; Regs used in _I2C_Master_Wait: [wreg+status,2]
  3368                           
  3369     07F2                     l1367:	
  3370                           ;env_maestro.c: 338:     while ((SSPCON2 & 0x1F) || (SSPSTAT & 0x04));
  3371                           
  3372     07F2  1683               	bsf	3,5	;RP0=1, select bank1
  3373     07F3  1303               	bcf	3,6	;RP1=0, select bank1
  3374     07F4  0811               	movf	17,w	;volatile
  3375     07F5  391F               	andlw	31
  3376     07F6  1D03               	btfss	3,2
  3377     07F7  2FF9               	goto	u751
  3378     07F8  2FFA               	goto	u750
  3379     07F9                     u751:
  3380     07F9  2FF2               	goto	l1367
  3381     07FA                     u750:
  3382     07FA                     l1369:
  3383     07FA  1914               	btfsc	20,2	;volatile
  3384     07FB  2FFD               	goto	u761
  3385     07FC  2FFE               	goto	u760
  3386     07FD                     u761:
  3387     07FD  2FF2               	goto	l1367
  3388     07FE                     u760:
  3389     07FE                     l194:
  3390     07FE  0008               	return
  3391     07FF                     __end_of_I2C_Master_Wait:
  3392                           
  3393                           	psect	text19
  3394     062B                     __ptext19:	
  3395 ;; *************** function _I2C_Master_Init *****************
  3396 ;; Defined at:
  3397 ;;		line 328 in file "env_maestro.c"
  3398 ;; Parameters:    Size  Location     Type
  3399 ;;  c               4    0[BANK1 ] const unsigned long 
  3400 ;; Auto vars:     Size  Location     Type
  3401 ;;		None
  3402 ;; Return value:  Size  Location     Type
  3403 ;;                  1    wreg      void 
  3404 ;; Registers used:
  3405 ;;		wreg, status,2, status,0, btemp+1, pclath, cstack
  3406 ;; Tracked objects:
  3407 ;;		On entry : 0/0
  3408 ;;		On exit  : 0/0
  3409 ;;		Unchanged: 0/0
  3410 ;; Data sizes:     COMMON   BANK0   BANK1
  3411 ;;      Params:         0       0       4
  3412 ;;      Locals:         0       0       0
  3413 ;;      Temps:          0       0       4
  3414 ;;      Totals:         0       0       8
  3415 ;;Total ram usage:        8 bytes
  3416 ;; Hardware stack levels used: 1
  3417 ;; Hardware stack levels required when called: 4
  3418 ;; This function calls:
  3419 ;;		___lldiv
  3420 ;; This function is called by:
  3421 ;;		_main
  3422 ;; This function uses a non-reentrant model
  3423 ;;
  3424                           
  3425     062B                     _I2C_Master_Init:	
  3426                           ;psect for function _I2C_Master_Init
  3427                           
  3428     062B                     l1909:	
  3429                           ;incstack = 0
  3430                           ; Regs used in _I2C_Master_Init: [wreg+status,2+status,0+btemp+1+pclath+cstack]
  3431                           
  3432                           
  3433                           ;env_maestro.c: 329:     SSPCON = 0b00101000;
  3434     062B  3028               	movlw	40
  3435     062C  1283               	bcf	3,5	;RP0=0, select bank0
  3436     062D  1303               	bcf	3,6	;RP1=0, select bank0
  3437     062E  0094               	movwf	20	;volatile
  3438     062F                     l1911:
  3439                           
  3440                           ;env_maestro.c: 330:    SSPADD = (unsigned char)((4000000 / (4 * c)) - 1);
  3441     062F  1683               	bsf	3,5	;RP0=1, select bank1
  3442     0630  1303               	bcf	3,6	;RP1=0, select bank1
  3443     0631  083A               	movf	I2C_Master_Init@c^(0+128),w
  3444     0632  00BE               	movwf	??_I2C_Master_Init^(0+128)
  3445     0633  083B               	movf	(I2C_Master_Init@c+1)^(0+128),w
  3446     0634  00BF               	movwf	(??_I2C_Master_Init^(0+128)+1)
  3447     0635  083C               	movf	(I2C_Master_Init@c+2)^(0+128),w
  3448     0636  00C0               	movwf	(??_I2C_Master_Init^(0+128)+2)
  3449     0637  083D               	movf	(I2C_Master_Init@c+3)^(0+128),w
  3450     0638  00C1               	movwf	(??_I2C_Master_Init^(0+128)+3)
  3451     0639  3002               	movlw	2
  3452     063A                     u1495:
  3453     063A  1003               	clrc
  3454     063B  0DBE               	rlf	??_I2C_Master_Init^(0+128),f
  3455     063C  0DBF               	rlf	(??_I2C_Master_Init^(0+128)+1),f
  3456     063D  0DC0               	rlf	(??_I2C_Master_Init^(0+128)+2),f
  3457     063E  0DC1               	rlf	(??_I2C_Master_Init^(0+128)+3),f
  3458     063F                     u1490:
  3459     063F  3EFF               	addlw	-1
  3460     0640  1D03               	skipz
  3461     0641  2E3A               	goto	u1495
  3462     0642  0841               	movf	(??_I2C_Master_Init+3)^(0+128),w
  3463     0643  1283               	bcf	3,5	;RP0=0, select bank0
  3464     0644  1303               	bcf	3,6	;RP1=0, select bank0
  3465     0645  00C1               	movwf	___lldiv@divisor+3
  3466     0646  1683               	bsf	3,5	;RP0=1, select bank1
  3467     0647  1303               	bcf	3,6	;RP1=0, select bank1
  3468     0648  0840               	movf	(??_I2C_Master_Init+2)^(0+128),w
  3469     0649  1283               	bcf	3,5	;RP0=0, select bank0
  3470     064A  1303               	bcf	3,6	;RP1=0, select bank0
  3471     064B  00C0               	movwf	___lldiv@divisor+2
  3472     064C  1683               	bsf	3,5	;RP0=1, select bank1
  3473     064D  1303               	bcf	3,6	;RP1=0, select bank1
  3474     064E  083F               	movf	(??_I2C_Master_Init+1)^(0+128),w
  3475     064F  1283               	bcf	3,5	;RP0=0, select bank0
  3476     0650  1303               	bcf	3,6	;RP1=0, select bank0
  3477     0651  00BF               	movwf	___lldiv@divisor+1
  3478     0652  1683               	bsf	3,5	;RP0=1, select bank1
  3479     0653  1303               	bcf	3,6	;RP1=0, select bank1
  3480     0654  083E               	movf	??_I2C_Master_Init^(0+128),w
  3481     0655  1283               	bcf	3,5	;RP0=0, select bank0
  3482     0656  1303               	bcf	3,6	;RP1=0, select bank0
  3483     0657  00BE               	movwf	___lldiv@divisor
  3484     0658  3000               	movlw	0
  3485     0659  00C5               	movwf	___lldiv@dividend+3
  3486     065A  303D               	movlw	61
  3487     065B  00C4               	movwf	___lldiv@dividend+2
  3488     065C  3009               	movlw	9
  3489     065D  00C3               	movwf	___lldiv@dividend+1
  3490     065E  3000               	movlw	0
  3491     065F  00C2               	movwf	___lldiv@dividend
  3492     0660  118A  250E  118A   	fcall	___lldiv
  3493     0663  1283               	bcf	3,5	;RP0=0, select bank0
  3494     0664  1303               	bcf	3,6	;RP1=0, select bank0
  3495     0665  083E               	movf	?___lldiv,w
  3496     0666  3EFF               	addlw	255
  3497     0667  1683               	bsf	3,5	;RP0=1, select bank1
  3498     0668  1303               	bcf	3,6	;RP1=0, select bank1
  3499     0669  0093               	movwf	19	;volatile
  3500     066A                     l1913:
  3501                           
  3502                           ;env_maestro.c: 332:     SSPSTAT = 0x00;
  3503     066A  0194               	clrf	20	;volatile
  3504     066B                     l1915:
  3505                           
  3506                           ;env_maestro.c: 333:     TRISC3 = 1;
  3507     066B  1587               	bsf	7,3	;volatile
  3508     066C                     l1917:
  3509                           
  3510                           ;env_maestro.c: 334:     TRISC4 = 1;
  3511     066C  1607               	bsf	7,4	;volatile
  3512     066D                     l188:
  3513     066D  0008               	return
  3514     066E                     __end_of_I2C_Master_Init:
  3515                           
  3516                           	psect	text20
  3517     050E                     __ptext20:	
  3518 ;; *************** function ___lldiv *****************
  3519 ;; Defined at:
  3520 ;;		line 5 in file "C:\Program Files\Microchip\xc8\v2.46\pic\sources\c99\common\__lldiv.c"
  3521 ;; Parameters:    Size  Location     Type
  3522 ;;  divisor         4   30[BANK0 ] unsigned long 
  3523 ;;  dividend        4   34[BANK0 ] unsigned long 
  3524 ;; Auto vars:     Size  Location     Type
  3525 ;;  quotient        4   39[BANK0 ] unsigned long 
  3526 ;;  counter         1   43[BANK0 ] unsigned char 
  3527 ;; Return value:  Size  Location     Type
  3528 ;;                  4   30[BANK0 ] unsigned long 
  3529 ;; Registers used:
  3530 ;;		wreg, status,2, status,0, btemp+1
  3531 ;; Tracked objects:
  3532 ;;		On entry : 0/0
  3533 ;;		On exit  : 0/0
  3534 ;;		Unchanged: 0/0
  3535 ;; Data sizes:     COMMON   BANK0   BANK1
  3536 ;;      Params:         0       8       0
  3537 ;;      Locals:         0       5       0
  3538 ;;      Temps:          0       1       0
  3539 ;;      Totals:         0      14       0
  3540 ;;Total ram usage:       14 bytes
  3541 ;; Hardware stack levels used: 1
  3542 ;; Hardware stack levels required when called: 3
  3543 ;; This function calls:
  3544 ;;		Nothing
  3545 ;; This function is called by:
  3546 ;;		_I2C_Master_Init
  3547 ;; This function uses a non-reentrant model
  3548 ;;
  3549                           
  3550     050E                     ___lldiv:	
  3551                           ;psect for function ___lldiv
  3552                           
  3553     050E                     l1385:	
  3554                           ;incstack = 0
  3555                           ; Regs used in ___lldiv: [wreg+status,2+status,0+btemp+1]
  3556                           
  3557     050E  3000               	movlw	0
  3558     050F  1283               	bcf	3,5	;RP0=0, select bank0
  3559     0510  1303               	bcf	3,6	;RP1=0, select bank0
  3560     0511  00CA               	movwf	___lldiv@quotient+3
  3561     0512  3000               	movlw	0
  3562     0513  00C9               	movwf	___lldiv@quotient+2
  3563     0514  3000               	movlw	0
  3564     0515  00C8               	movwf	___lldiv@quotient+1
  3565     0516  3000               	movlw	0
  3566     0517  00C7               	movwf	___lldiv@quotient
  3567     0518  0841               	movf	___lldiv@divisor+3,w
  3568     0519  0440               	iorwf	___lldiv@divisor+2,w
  3569     051A  043F               	iorwf	___lldiv@divisor+1,w
  3570     051B  043E               	iorwf	___lldiv@divisor,w
  3571     051C  1903               	skipnz
  3572     051D  2D1F               	goto	u811
  3573     051E  2D20               	goto	u810
  3574     051F                     u811:
  3575     051F  2D6D               	goto	l1407
  3576     0520                     u810:
  3577     0520                     l1387:
  3578     0520  01CB               	clrf	___lldiv@counter
  3579     0521  0ACB               	incf	___lldiv@counter,f
  3580     0522  2D30               	goto	l1393
  3581     0523                     l1389:
  3582     0523  3001               	movlw	1
  3583     0524  00C6               	movwf	??___lldiv
  3584     0525                     u825:
  3585     0525  1003               	clrc
  3586     0526  0DBE               	rlf	___lldiv@divisor,f
  3587     0527  0DBF               	rlf	___lldiv@divisor+1,f
  3588     0528  0DC0               	rlf	___lldiv@divisor+2,f
  3589     0529  0DC1               	rlf	___lldiv@divisor+3,f
  3590     052A  0BC6               	decfsz	??___lldiv,f
  3591     052B  2D25               	goto	u825
  3592     052C                     l1391:
  3593     052C  3001               	movlw	1
  3594     052D  00FF               	movwf	btemp+1
  3595     052E  087F               	movf	btemp+1,w
  3596     052F  07CB               	addwf	___lldiv@counter,f
  3597     0530                     l1393:
  3598     0530  1FC1               	btfss	___lldiv@divisor+3,7
  3599     0531  2D33               	goto	u831
  3600     0532  2D34               	goto	u830
  3601     0533                     u831:
  3602     0533  2D23               	goto	l1389
  3603     0534                     u830:
  3604     0534                     l1395:
  3605     0534  3001               	movlw	1
  3606     0535  00C6               	movwf	??___lldiv
  3607     0536                     u845:
  3608     0536  1003               	clrc
  3609     0537  0DC7               	rlf	___lldiv@quotient,f
  3610     0538  0DC8               	rlf	___lldiv@quotient+1,f
  3611     0539  0DC9               	rlf	___lldiv@quotient+2,f
  3612     053A  0DCA               	rlf	___lldiv@quotient+3,f
  3613     053B  0BC6               	decfsz	??___lldiv,f
  3614     053C  2D36               	goto	u845
  3615     053D                     l1397:
  3616     053D  0841               	movf	___lldiv@divisor+3,w
  3617     053E  0245               	subwf	___lldiv@dividend+3,w
  3618     053F  1D03               	skipz
  3619     0540  2D4B               	goto	u855
  3620     0541  0840               	movf	___lldiv@divisor+2,w
  3621     0542  0244               	subwf	___lldiv@dividend+2,w
  3622     0543  1D03               	skipz
  3623     0544  2D4B               	goto	u855
  3624     0545  083F               	movf	___lldiv@divisor+1,w
  3625     0546  0243               	subwf	___lldiv@dividend+1,w
  3626     0547  1D03               	skipz
  3627     0548  2D4B               	goto	u855
  3628     0549  083E               	movf	___lldiv@divisor,w
  3629     054A  0242               	subwf	___lldiv@dividend,w
  3630     054B                     u855:
  3631     054B  1C03               	skipc
  3632     054C  2D4E               	goto	u851
  3633     054D  2D4F               	goto	u850
  3634     054E                     u851:
  3635     054E  2D5E               	goto	l1403
  3636     054F                     u850:
  3637     054F                     l1399:
  3638     054F  083E               	movf	___lldiv@divisor,w
  3639     0550  02C2               	subwf	___lldiv@dividend,f
  3640     0551  083F               	movf	___lldiv@divisor+1,w
  3641     0552  1C03               	skipc
  3642     0553  0F3F               	incfsz	___lldiv@divisor+1,w
  3643     0554  02C3               	subwf	___lldiv@dividend+1,f
  3644     0555  0840               	movf	___lldiv@divisor+2,w
  3645     0556  1C03               	skipc
  3646     0557  0F40               	incfsz	___lldiv@divisor+2,w
  3647     0558  02C4               	subwf	___lldiv@dividend+2,f
  3648     0559  0841               	movf	___lldiv@divisor+3,w
  3649     055A  1C03               	skipc
  3650     055B  0F41               	incfsz	___lldiv@divisor+3,w
  3651     055C  02C5               	subwf	___lldiv@dividend+3,f
  3652     055D                     l1401:
  3653     055D  1447               	bsf	___lldiv@quotient,0
  3654     055E                     l1403:
  3655     055E  3001               	movlw	1
  3656     055F                     u865:
  3657     055F  1003               	clrc
  3658     0560  0CC1               	rrf	___lldiv@divisor+3,f
  3659     0561  0CC0               	rrf	___lldiv@divisor+2,f
  3660     0562  0CBF               	rrf	___lldiv@divisor+1,f
  3661     0563  0CBE               	rrf	___lldiv@divisor,f
  3662     0564  3EFF               	addlw	-1
  3663     0565  1D03               	skipz
  3664     0566  2D5F               	goto	u865
  3665     0567                     l1405:
  3666     0567  3001               	movlw	1
  3667     0568  02CB               	subwf	___lldiv@counter,f
  3668     0569  1D03               	btfss	3,2
  3669     056A  2D6C               	goto	u871
  3670     056B  2D6D               	goto	u870
  3671     056C                     u871:
  3672     056C  2D34               	goto	l1395
  3673     056D                     u870:
  3674     056D                     l1407:
  3675     056D  084A               	movf	___lldiv@quotient+3,w
  3676     056E  00C1               	movwf	?___lldiv+3
  3677     056F  0849               	movf	___lldiv@quotient+2,w
  3678     0570  00C0               	movwf	?___lldiv+2
  3679     0571  0848               	movf	___lldiv@quotient+1,w
  3680     0572  00BF               	movwf	?___lldiv+1
  3681     0573  0847               	movf	___lldiv@quotient,w
  3682     0574  00BE               	movwf	?___lldiv
  3683     0575                     l345:
  3684     0575  0008               	return
  3685     0576                     __end_of___lldiv:
  3686                           
  3687                           	psect	text21
  3688     02AD                     __ptext21:	
  3689 ;; *************** function _ISR *****************
  3690 ;; Defined at:
  3691 ;;		line 368 in file "env_maestro.c"
  3692 ;; Parameters:    Size  Location     Type
  3693 ;;		None
  3694 ;; Auto vars:     Size  Location     Type
  3695 ;;  temp            1   29[BANK0 ] unsigned char 
  3696 ;; Return value:  Size  Location     Type
  3697 ;;                  1    wreg      void 
  3698 ;; Registers used:
  3699 ;;		wreg, fsr0l, fsr0h, status,2, status,0, btemp+1, pclath, cstack
  3700 ;; Tracked objects:
  3701 ;;		On entry : 0/0
  3702 ;;		On exit  : 0/0
  3703 ;;		Unchanged: 0/0
  3704 ;; Data sizes:     COMMON   BANK0   BANK1
  3705 ;;      Params:         0       0       0
  3706 ;;      Locals:         0       1       0
  3707 ;;      Temps:          0       7       0
  3708 ;;      Totals:         0       8       0
  3709 ;;Total ram usage:        8 bytes
  3710 ;; Hardware stack levels used: 1
  3711 ;; Hardware stack levels required when called: 2
  3712 ;; This function calls:
  3713 ;;		i1_I2C_Master_Init
  3714 ;;		i1_Keyboard_init
  3715 ;;		i1_LCD_clear
  3716 ;;		i1_LCD_print
  3717 ;;		i1_LCD_setCursor
  3718 ;;		i1_Prepare_LCD_Pins
  3719 ;; This function is called by:
  3720 ;;		Interrupt level 1
  3721 ;; This function uses a non-reentrant model
  3722 ;;
  3723                           
  3724     02AD                     _ISR:	
  3725                           ;psect for function _ISR
  3726                           
  3727     02AD                     i1l1847:
  3728                           
  3729                           ;env_maestro.c: 369:     static char receiveBuffer[15 + 1];;env_maestro.c: 370:     stat
      +                          ic int index = 0;;env_maestro.c: 372:     if (SSPIF) {
  3730     02AD  1D8C               	btfss	12,3	;volatile
  3731     02AE  2AB0               	goto	u141_21
  3732     02AF  2AB1               	goto	u141_20
  3733     02B0                     u141_21:
  3734     02B0  2B74               	goto	i1l223
  3735     02B1                     u141_20:
  3736     02B1                     i1l1849:
  3737                           
  3738                           ;env_maestro.c: 373:         char temp = SSPBUF;
  3739     02B1  0813               	movf	19,w	;volatile
  3740     02B2  00BD               	movwf	ISR@temp
  3741     02B3                     i1l1851:
  3742                           
  3743                           ;env_maestro.c: 374:         SSPCONbits.CKP = 1;
  3744     02B3  1614               	bsf	20,4	;volatile
  3745     02B4                     i1l1853:
  3746                           
  3747                           ;env_maestro.c: 376:         if (!SSPSTATbits.D_nA && !SSPSTATbits.R_nW) {
  3748     02B4  1683               	bsf	3,5	;RP0=1, select bank1
  3749     02B5  1303               	bcf	3,6	;RP1=0, select bank1
  3750     02B6  1A94               	btfsc	20,5	;volatile
  3751     02B7  2AB9               	goto	u142_21
  3752     02B8  2ABA               	goto	u142_20
  3753     02B9                     u142_21:
  3754     02B9  2AC3               	goto	i1l216
  3755     02BA                     u142_20:
  3756     02BA                     i1l1855:
  3757     02BA  1914               	btfsc	20,2	;volatile
  3758     02BB  2ABD               	goto	u143_21
  3759     02BC  2ABE               	goto	u143_20
  3760     02BD                     u143_21:
  3761     02BD  2AC3               	goto	i1l216
  3762     02BE                     u143_20:
  3763     02BE                     i1l1857:
  3764                           
  3765                           ;env_maestro.c: 377:             index = 0;
  3766     02BE  1283               	bcf	3,5	;RP0=0, select bank0
  3767     02BF  1303               	bcf	3,6	;RP1=0, select bank0
  3768     02C0  01CC               	clrf	ISR@index
  3769     02C1  01CD               	clrf	ISR@index+1
  3770                           
  3771                           ;env_maestro.c: 378:         } else if (SSPSTATbits.D_nA && !SSPSTATbits.R_nW) {
  3772     02C2  2B71               	goto	i1l1907
  3773     02C3                     i1l216:
  3774     02C3  1E94               	btfss	20,5	;volatile
  3775     02C4  2AC6               	goto	u144_21
  3776     02C5  2AC7               	goto	u144_20
  3777     02C6                     u144_21:
  3778     02C6  2B71               	goto	i1l1907
  3779     02C7                     u144_20:
  3780     02C7                     i1l1859:
  3781     02C7  1914               	btfsc	20,2	;volatile
  3782     02C8  2ACA               	goto	u145_21
  3783     02C9  2ACB               	goto	u145_20
  3784     02CA                     u145_21:
  3785     02CA  2B71               	goto	i1l1907
  3786     02CB                     u145_20:
  3787     02CB                     i1l1861:
  3788                           
  3789                           ;env_maestro.c: 379:             if (index < 15) {
  3790     02CB  1283               	bcf	3,5	;RP0=0, select bank0
  3791     02CC  1303               	bcf	3,6	;RP1=0, select bank0
  3792     02CD  084D               	movf	ISR@index+1,w
  3793     02CE  3A80               	xorlw	128
  3794     02CF  00FF               	movwf	btemp+1
  3795     02D0  3080               	movlw	128
  3796     02D1  027F               	subwf	btemp+1,w
  3797     02D2  1D03               	skipz
  3798     02D3  2AD6               	goto	u146_25
  3799     02D4  300F               	movlw	15
  3800     02D5  024C               	subwf	ISR@index,w
  3801     02D6                     u146_25:
  3802     02D6  1803               	skipnc
  3803     02D7  2AD9               	goto	u146_21
  3804     02D8  2ADA               	goto	u146_20
  3805     02D9                     u146_21:
  3806     02D9  2B71               	goto	i1l1907
  3807     02DA                     u146_20:
  3808     02DA                     i1l1863:
  3809                           
  3810                           ;env_maestro.c: 380:                 receiveBuffer[index++] = temp;
  3811     02DA  1283               	bcf	3,5	;RP0=0, select bank0
  3812     02DB  1303               	bcf	3,6	;RP1=0, select bank0
  3813     02DC  084C               	movf	ISR@index,w
  3814     02DD  3E4E               	addlw	(low (ISR@receiveBuffer| 0))& (0+255)
  3815     02DE  0084               	movwf	4
  3816     02DF  083D               	movf	ISR@temp,w
  3817     02E0  1383               	bcf	3,7	;select IRP bank0
  3818     02E1  0080               	movwf	0
  3819     02E2                     i1l1865:
  3820     02E2  3001               	movlw	1
  3821     02E3  07CC               	addwf	ISR@index,f
  3822     02E4  1803               	skipnc
  3823     02E5  0ACD               	incf	ISR@index+1,f
  3824     02E6  3000               	movlw	0
  3825     02E7  07CD               	addwf	ISR@index+1,f
  3826     02E8                     i1l1867:
  3827                           
  3828                           ;env_maestro.c: 381:                 if (temp == '\0' || index == 15) {
  3829     02E8  083D               	movf	ISR@temp,w
  3830     02E9  1903               	btfsc	3,2
  3831     02EA  2AEC               	goto	u147_21
  3832     02EB  2AED               	goto	u147_20
  3833     02EC                     u147_21:
  3834     02EC  2AF4               	goto	i1l1871
  3835     02ED                     u147_20:
  3836     02ED                     i1l1869:
  3837     02ED  300F               	movlw	15
  3838     02EE  064C               	xorwf	ISR@index,w
  3839     02EF  044D               	iorwf	ISR@index+1,w
  3840     02F0  1D03               	btfss	3,2
  3841     02F1  2AF3               	goto	u148_21
  3842     02F2  2AF4               	goto	u148_20
  3843     02F3                     u148_21:
  3844     02F3  2B71               	goto	i1l218
  3845     02F4                     u148_20:
  3846     02F4                     i1l1871:
  3847                           
  3848                           ;env_maestro.c: 382:                     receiveBuffer[index] = '\0';
  3849     02F4  084C               	movf	ISR@index,w
  3850     02F5  3E4E               	addlw	(low (ISR@receiveBuffer| 0))& (0+255)
  3851     02F6  0084               	movwf	4
  3852     02F7  0180               	clrf	0
  3853     02F8                     i1l1873:
  3854                           
  3855                           ;env_maestro.c: 383:                     Prepare_LCD_Pins();
  3856     02F8  158A  27BB  118A   	fcall	i1_Prepare_LCD_Pins
  3857     02FB                     i1l1875:
  3858                           
  3859                           ;env_maestro.c: 384:                     LCD_clear();
  3860     02FB  118A  27E2  118A   	fcall	i1_LCD_clear
  3861     02FE                     i1l1877:
  3862                           
  3863                           ;env_maestro.c: 385:                     LCD_setCursor(1, 0);
  3864     02FE  1283               	bcf	3,5	;RP0=0, select bank0
  3865     02FF  1303               	bcf	3,6	;RP1=0, select bank0
  3866     0300  01A3               	clrf	i1LCD_setCursor@column
  3867     0301  3001               	movlw	1
  3868     0302  118A  2746  118A   	fcall	i1_LCD_setCursor
  3869     0305                     i1l1879:
  3870                           
  3871                           ;env_maestro.c: 386:                     LCD_print(receiveBuffer);
  3872     0305  304E               	movlw	(low (ISR@receiveBuffer| 0))& (0+255)
  3873     0306  1283               	bcf	3,5	;RP0=0, select bank0
  3874     0307  1303               	bcf	3,6	;RP1=0, select bank0
  3875     0308  00A3               	movwf	i1LCD_print@string
  3876     0309  3000               	movlw	0
  3877     030A  00A4               	movwf	i1LCD_print@string+1
  3878     030B  118A  26EA  118A   	fcall	i1_LCD_print
  3879     030E                     i1l1881:
  3880                           
  3881                           ;env_maestro.c: 387:                     _delay((unsigned long)((2000)*(4000000/4000.0))
      +                          );
  3882     030E  300B               	movlw	11
  3883     030F  1283               	bcf	3,5	;RP0=0, select bank0
  3884     0310  1303               	bcf	3,6	;RP1=0, select bank0
  3885     0311  00B8               	movwf	??_ISR+2
  3886     0312  3026               	movlw	38
  3887     0313  00B7               	movwf	??_ISR+1
  3888     0314  305D               	movlw	93
  3889     0315  00B6               	movwf	??_ISR
  3890     0316                     u187_27:
  3891     0316  0BB6               	decfsz	??_ISR,f
  3892     0317  2B16               	goto	u187_27
  3893     0318  0BB7               	decfsz	??_ISR+1,f
  3894     0319  2B16               	goto	u187_27
  3895     031A  0BB8               	decfsz	??_ISR+2,f
  3896     031B  2B16               	goto	u187_27
  3897     031C  0000               	nop
  3898     031D                     i1l1883:
  3899                           
  3900                           ;env_maestro.c: 388:                     LCD_clear();
  3901     031D  118A  27E2  118A   	fcall	i1_LCD_clear
  3902     0320                     i1l1885:
  3903                           
  3904                           ;env_maestro.c: 389:                     LCD_setCursor(1,0);
  3905     0320  1283               	bcf	3,5	;RP0=0, select bank0
  3906     0321  1303               	bcf	3,6	;RP1=0, select bank0
  3907     0322  01A3               	clrf	i1LCD_setCursor@column
  3908     0323  3001               	movlw	1
  3909     0324  118A  2746  118A   	fcall	i1_LCD_setCursor
  3910     0327                     i1l1887:
  3911                           
  3912                           ;env_maestro.c: 390:                     LCD_print("Escriba res-");
  3913     0327  3061               	movlw	(low ((STR_5-__stringbase)| (0+32768)))& (0+255)
  3914     0328  1283               	bcf	3,5	;RP0=0, select bank0
  3915     0329  1303               	bcf	3,6	;RP1=0, select bank0
  3916     032A  00A3               	movwf	i1LCD_print@string
  3917     032B  3080               	movlw	128
  3918     032C  00A4               	movwf	i1LCD_print@string+1
  3919     032D  118A  26EA  118A   	fcall	i1_LCD_print
  3920     0330                     i1l1889:
  3921                           
  3922                           ;env_maestro.c: 391:                     LCD_setCursor(2,0);
  3923     0330  1283               	bcf	3,5	;RP0=0, select bank0
  3924     0331  1303               	bcf	3,6	;RP1=0, select bank0
  3925     0332  01A3               	clrf	i1LCD_setCursor@column
  3926     0333  3002               	movlw	2
  3927     0334  118A  2746  118A   	fcall	i1_LCD_setCursor
  3928     0337                     i1l1891:
  3929                           
  3930                           ;env_maestro.c: 392:                     LCD_print("para esclavo...");
  3931     0337  3032               	movlw	(low ((STR_6-__stringbase)| (0+32768)))& (0+255)
  3932     0338  1283               	bcf	3,5	;RP0=0, select bank0
  3933     0339  1303               	bcf	3,6	;RP1=0, select bank0
  3934     033A  00A3               	movwf	i1LCD_print@string
  3935     033B  3080               	movlw	128
  3936     033C  00A4               	movwf	i1LCD_print@string+1
  3937     033D  118A  26EA  118A   	fcall	i1_LCD_print
  3938     0340                     i1l1893:
  3939                           
  3940                           ;env_maestro.c: 393:                     index = 0;
  3941     0340  1283               	bcf	3,5	;RP0=0, select bank0
  3942     0341  1303               	bcf	3,6	;RP1=0, select bank0
  3943     0342  01CC               	clrf	ISR@index
  3944     0343  01CD               	clrf	ISR@index+1
  3945     0344                     i1l1895:
  3946                           
  3947                           ;env_maestro.c: 394:                     _delay((unsigned long)((2000)*(4000000/4000.0))
      +                          );
  3948     0344  300B               	movlw	11
  3949     0345  1283               	bcf	3,5	;RP0=0, select bank0
  3950     0346  1303               	bcf	3,6	;RP1=0, select bank0
  3951     0347  00B8               	movwf	??_ISR+2
  3952     0348  3026               	movlw	38
  3953     0349  00B7               	movwf	??_ISR+1
  3954     034A  305D               	movlw	93
  3955     034B  00B6               	movwf	??_ISR
  3956     034C                     u188_27:
  3957     034C  0BB6               	decfsz	??_ISR,f
  3958     034D  2B4C               	goto	u188_27
  3959     034E  0BB7               	decfsz	??_ISR+1,f
  3960     034F  2B4C               	goto	u188_27
  3961     0350  0BB8               	decfsz	??_ISR+2,f
  3962     0351  2B4C               	goto	u188_27
  3963     0352  0000               	nop
  3964     0353                     i1l1897:
  3965                           
  3966                           ;env_maestro.c: 397:                     LCD_clear();
  3967     0353  118A  27E2  118A   	fcall	i1_LCD_clear
  3968     0356                     i1l1899:
  3969                           
  3970                           ;env_maestro.c: 398:                     LCD_setCursor(1, 0);
  3971     0356  1283               	bcf	3,5	;RP0=0, select bank0
  3972     0357  1303               	bcf	3,6	;RP1=0, select bank0
  3973     0358  01A3               	clrf	i1LCD_setCursor@column
  3974     0359  3001               	movlw	1
  3975     035A  118A  2746  118A   	fcall	i1_LCD_setCursor
  3976     035D                     i1l1901:
  3977                           
  3978                           ;env_maestro.c: 400:                     Keyboard_init();
  3979     035D  158A  27EA  118A   	fcall	i1_Keyboard_init
  3980     0360                     i1l1903:
  3981                           
  3982                           ;env_maestro.c: 402:                 i2c_role = 0;
  3983     0360  1683               	bsf	3,5	;RP0=1, select bank1
  3984     0361  1303               	bcf	3,6	;RP1=0, select bank1
  3985     0362  01A4               	clrf	_i2c_role^(0+128)	;volatile
  3986     0363                     i1l1905:
  3987                           
  3988                           ;env_maestro.c: 403:                 I2C_Master_Init(100000);
  3989     0363  3000               	movlw	0
  3990     0364  1283               	bcf	3,5	;RP0=0, select bank0
  3991     0365  1303               	bcf	3,6	;RP1=0, select bank0
  3992     0366  00B1               	movwf	i1I2C_Master_Init@c+3
  3993     0367  3001               	movlw	1
  3994     0368  00B0               	movwf	i1I2C_Master_Init@c+2
  3995     0369  3086               	movlw	134
  3996     036A  00AF               	movwf	i1I2C_Master_Init@c+1
  3997     036B  30A0               	movlw	160
  3998     036C  00AE               	movwf	i1I2C_Master_Init@c
  3999     036D  118A  266E  118A   	fcall	i1_I2C_Master_Init
  4000     0370  2B71               	goto	i1l1907
  4001     0371                     i1l218:	
  4002                           ;env_maestro.c: 406:         }
  4003                           
  4004     0371                     i1l1907:
  4005                           
  4006                           ;env_maestro.c: 407:         SSPIF = 0;
  4007     0371  1283               	bcf	3,5	;RP0=0, select bank0
  4008     0372  1303               	bcf	3,6	;RP1=0, select bank0
  4009     0373  118C               	bcf	12,3	;volatile
  4010     0374                     i1l223:
  4011     0374  083C               	movf	??_ISR+6,w
  4012     0375  083B               	movf	??_ISR+5,w
  4013     0376  008A               	movwf	10
  4014     0377  083A               	movf	??_ISR+4,w
  4015     0378  0084               	movwf	4
  4016     0379  0E39               	swapf	??_ISR+3,w
  4017     037A  0083               	movwf	3
  4018     037B  0EFE               	swapf	btemp,f
  4019     037C  0E7E               	swapf	btemp,w
  4020     037D  0009               	retfie
  4021     037E                     __end_of_ISR:
  4022                           
  4023                           	psect	intentry
  4024     0004                     __pintentry:	
  4025                           ;incstack = 0
  4026                           ; Regs used in _ISR: [wreg-fsr0h+status,2+status,0+btemp+1+pclath+cstack]
  4027                           
  4028     0004                     interrupt_function:
  4029     007E                     saved_w	set	btemp
  4030     0004  00FE               	movwf	btemp
  4031     0005  0E03               	swapf	3,w
  4032     0006  1283               	bcf	3,5	;RP0=0, select bank0
  4033     0007  1303               	bcf	3,6	;RP1=0, select bank0
  4034     0008  00B9               	movwf	??_ISR+3
  4035     0009  0804               	movf	4,w
  4036     000A  00BA               	movwf	??_ISR+4
  4037     000B  080A               	movf	10,w
  4038     000C  00BB               	movwf	??_ISR+5
  4039     000D  087F               	movf	btemp+1,w
  4040     000E  00BC               	movwf	??_ISR+6
  4041     000F  118A  2AAD         	ljmp	_ISR
  4042                           
  4043                           	psect	text22
  4044     0FBB                     __ptext22:	
  4045 ;; *************** function i1_Prepare_LCD_Pins *****************
  4046 ;; Defined at:
  4047 ;;		line 316 in file "env_maestro.c"
  4048 ;; Parameters:    Size  Location     Type
  4049 ;;		None
  4050 ;; Auto vars:     Size  Location     Type
  4051 ;;		None
  4052 ;; Return value:  Size  Location     Type
  4053 ;;                  1    wreg      void 
  4054 ;; Registers used:
  4055 ;;		status,2
  4056 ;; Tracked objects:
  4057 ;;		On entry : 0/0
  4058 ;;		On exit  : 0/0
  4059 ;;		Unchanged: 0/0
  4060 ;; Data sizes:     COMMON   BANK0   BANK1
  4061 ;;      Params:         0       0       0
  4062 ;;      Locals:         0       0       0
  4063 ;;      Temps:          0       0       0
  4064 ;;      Totals:         0       0       0
  4065 ;;Total ram usage:        0 bytes
  4066 ;; Hardware stack levels used: 1
  4067 ;; This function calls:
  4068 ;;		Nothing
  4069 ;; This function is called by:
  4070 ;;		_ISR
  4071 ;; This function uses a non-reentrant model
  4072 ;;
  4073                           
  4074     0FBB                     i1_Prepare_LCD_Pins:	
  4075                           ;psect for function i1_Prepare_LCD_Pins
  4076                           
  4077     0FBB                     i1l1655:	
  4078                           ;incstack = 0
  4079                           ; Regs used in i1_Prepare_LCD_Pins: [status,2]
  4080                           
  4081                           
  4082                           ;env_maestro.c: 318:     TRISB = 0x00;
  4083     0FBB  1683               	bsf	3,5	;RP0=1, select bank1
  4084     0FBC  1303               	bcf	3,6	;RP1=0, select bank1
  4085     0FBD  0186               	clrf	6	;volatile
  4086     0FBE                     i1l182:
  4087     0FBE  0008               	return
  4088     0FBF                     __end_ofi1_Prepare_LCD_Pins:
  4089                           
  4090                           	psect	text23
  4091     0746                     __ptext23:	
  4092 ;; *************** function i1_LCD_setCursor *****************
  4093 ;; Defined at:
  4094 ;;		line 262 in file "env_maestro.c"
  4095 ;; Parameters:    Size  Location     Type
  4096 ;;  row             1    wreg     unsigned char 
  4097 ;;  column          1    3[BANK0 ] unsigned char 
  4098 ;; Auto vars:     Size  Location     Type
  4099 ;;  row             1    4[BANK0 ] unsigned char 
  4100 ;;  position        1    7[BANK0 ] unsigned char 
  4101 ;; Return value:  Size  Location     Type
  4102 ;;                  1    wreg      void 
  4103 ;; Registers used:
  4104 ;;		wreg, status,2, status,0, btemp+1, pclath, cstack
  4105 ;; Tracked objects:
  4106 ;;		On entry : 0/0
  4107 ;;		On exit  : 0/0
  4108 ;;		Unchanged: 0/0
  4109 ;; Data sizes:     COMMON   BANK0   BANK1
  4110 ;;      Params:         0       1       0
  4111 ;;      Locals:         0       4       0
  4112 ;;      Temps:          0       0       0
  4113 ;;      Totals:         0       5       0
  4114 ;;Total ram usage:        5 bytes
  4115 ;; Hardware stack levels used: 1
  4116 ;; Hardware stack levels required when called: 1
  4117 ;; This function calls:
  4118 ;;		i1_LCD_command
  4119 ;; This function is called by:
  4120 ;;		_ISR
  4121 ;; This function uses a non-reentrant model
  4122 ;;
  4123                           
  4124     0746                     i1_LCD_setCursor:	
  4125                           ;psect for function i1_LCD_setCursor
  4126                           
  4127                           
  4128                           ;incstack = 0
  4129                           ; Regs used in i1_LCD_setCursor: [wreg+status,2+status,0+btemp+1+pclath+cstack]
  4130                           ;i1LCD_setCursor@row stored from wreg
  4131     0746  1283               	bcf	3,5	;RP0=0, select bank0
  4132     0747  1303               	bcf	3,6	;RP1=0, select bank0
  4133     0748  00A4               	movwf	i1LCD_setCursor@row
  4134     0749                     i1l1629:
  4135                           
  4136                           ;env_maestro.c: 263:     unsigned char position = (row == 1) ? 0x80 : 0xC0;
  4137     0749  0324               	decf	i1LCD_setCursor@row,w
  4138     074A  1903               	btfsc	3,2
  4139     074B  2F4D               	goto	u113_21
  4140     074C  2F4E               	goto	u113_20
  4141     074D                     u113_21:
  4142     074D  2F53               	goto	i1l1633
  4143     074E                     u113_20:
  4144     074E                     i1l1631:
  4145     074E  30C0               	movlw	192
  4146     074F  00A5               	movwf	i1_LCD_setCursor$302
  4147     0750  3000               	movlw	0
  4148     0751  00A6               	movwf	i1_LCD_setCursor$302+1
  4149     0752  2F57               	goto	i1l158
  4150     0753                     i1l1633:
  4151     0753  3080               	movlw	128
  4152     0754  00A5               	movwf	i1_LCD_setCursor$302
  4153     0755  3000               	movlw	0
  4154     0756  00A6               	movwf	i1_LCD_setCursor$302+1
  4155     0757                     i1l158:
  4156     0757  0825               	movf	i1_LCD_setCursor$302,w
  4157     0758  00A7               	movwf	i1LCD_setCursor@position
  4158     0759                     i1l1635:
  4159                           
  4160                           ;env_maestro.c: 264:     position += column;
  4161     0759  0823               	movf	i1LCD_setCursor@column,w
  4162     075A  00FF               	movwf	btemp+1
  4163     075B  087F               	movf	btemp+1,w
  4164     075C  07A7               	addwf	i1LCD_setCursor@position,f
  4165     075D                     i1l1637:
  4166                           
  4167                           ;env_maestro.c: 265:     LCD_command(position);
  4168     075D  0827               	movf	i1LCD_setCursor@position,w
  4169     075E  118A  27A7  118A   	fcall	i1_LCD_command
  4170     0761                     i1l159:
  4171     0761  0008               	return
  4172     0762                     __end_ofi1_LCD_setCursor:
  4173                           
  4174                           	psect	text24
  4175     06EA                     __ptext24:	
  4176 ;; *************** function i1_LCD_print *****************
  4177 ;; Defined at:
  4178 ;;		line 268 in file "env_maestro.c"
  4179 ;; Parameters:    Size  Location     Type
  4180 ;;  string          2    3[BANK0 ] PTR const unsigned char 
  4181 ;;		 -> STR_6(16), STR_5(13), ISR@receiveBuffer(16), STR_4(16), 
  4182 ;;		 -> STR_3(15), STR_2(17), STR_1(16), displayString(17), 
  4183 ;; Auto vars:     Size  Location     Type
  4184 ;;		None
  4185 ;; Return value:  Size  Location     Type
  4186 ;;                  1    wreg      void 
  4187 ;; Registers used:
  4188 ;;		wreg, fsr0l, fsr0h, status,2, status,0, btemp+1, pclath, cstack
  4189 ;; Tracked objects:
  4190 ;;		On entry : 0/0
  4191 ;;		On exit  : 0/0
  4192 ;;		Unchanged: 0/0
  4193 ;; Data sizes:     COMMON   BANK0   BANK1
  4194 ;;      Params:         0       2       0
  4195 ;;      Locals:         0       0       0
  4196 ;;      Temps:          0       0       0
  4197 ;;      Totals:         0       2       0
  4198 ;;Total ram usage:        2 bytes
  4199 ;; Hardware stack levels used: 1
  4200 ;; Hardware stack levels required when called: 1
  4201 ;; This function calls:
  4202 ;;		i1_LCD_data
  4203 ;; This function is called by:
  4204 ;;		_ISR
  4205 ;; This function uses a non-reentrant model
  4206 ;;
  4207                           
  4208     06EA                     i1_LCD_print:	
  4209                           ;psect for function i1_LCD_print
  4210                           
  4211     06EA                     i1l1639:	
  4212                           ;incstack = 0
  4213                           ; Regs used in i1_LCD_print: [wreg-fsr0h+status,2+status,0+btemp+1+pclath+cstack]
  4214                           
  4215                           
  4216                           ;env_maestro.c: 269:     while(*string) {
  4217     06EA  2EFD               	goto	i1l1645
  4218     06EB                     i1l1641:
  4219                           
  4220                           ;env_maestro.c: 270:         LCD_data(*string++);
  4221     06EB  0824               	movf	i1LCD_print@string+1,w
  4222     06EC  00FF               	movwf	btemp+1
  4223     06ED  0823               	movf	i1LCD_print@string,w
  4224     06EE  0084               	movwf	4
  4225     06EF  118A  2419  118A   	fcall	stringtab
  4226     06F2  118A  2790  118A   	fcall	i1_LCD_data
  4227     06F5                     i1l1643:
  4228     06F5  3001               	movlw	1
  4229     06F6  1283               	bcf	3,5	;RP0=0, select bank0
  4230     06F7  1303               	bcf	3,6	;RP1=0, select bank0
  4231     06F8  07A3               	addwf	i1LCD_print@string,f
  4232     06F9  1803               	skipnc
  4233     06FA  0AA4               	incf	i1LCD_print@string+1,f
  4234     06FB  3000               	movlw	0
  4235     06FC  07A4               	addwf	i1LCD_print@string+1,f
  4236     06FD                     i1l1645:
  4237                           
  4238                           ;env_maestro.c: 269:     while(*string) {
  4239     06FD  1283               	bcf	3,5	;RP0=0, select bank0
  4240     06FE  1303               	bcf	3,6	;RP1=0, select bank0
  4241     06FF  0824               	movf	i1LCD_print@string+1,w
  4242     0700  00FF               	movwf	btemp+1
  4243     0701  0823               	movf	i1LCD_print@string,w
  4244     0702  0084               	movwf	4
  4245     0703  118A  2419  118A   	fcall	stringtab
  4246     0706  3A00               	xorlw	0
  4247     0707  1D03               	skipz
  4248     0708  2F0A               	goto	u114_21
  4249     0709  2F0B               	goto	u114_20
  4250     070A                     u114_21:
  4251     070A  2EEB               	goto	i1l1641
  4252     070B                     u114_20:
  4253     070B                     i1l165:
  4254     070B  0008               	return
  4255     070C                     __end_ofi1_LCD_print:
  4256                           
  4257                           	psect	text25
  4258     0790                     __ptext25:	
  4259 ;; *************** function i1_LCD_data *****************
  4260 ;; Defined at:
  4261 ;;		line 225 in file "env_maestro.c"
  4262 ;; Parameters:    Size  Location     Type
  4263 ;;  data            1    wreg     unsigned char 
  4264 ;; Auto vars:     Size  Location     Type
  4265 ;;  data            1    2[BANK0 ] unsigned char 
  4266 ;; Return value:  Size  Location     Type
  4267 ;;                  1    wreg      void 
  4268 ;; Registers used:
  4269 ;;		wreg
  4270 ;; Tracked objects:
  4271 ;;		On entry : 0/0
  4272 ;;		On exit  : 0/0
  4273 ;;		Unchanged: 0/0
  4274 ;; Data sizes:     COMMON   BANK0   BANK1
  4275 ;;      Params:         0       0       0
  4276 ;;      Locals:         0       1       0
  4277 ;;      Temps:          0       2       0
  4278 ;;      Totals:         0       3       0
  4279 ;;Total ram usage:        3 bytes
  4280 ;; Hardware stack levels used: 1
  4281 ;; This function calls:
  4282 ;;		Nothing
  4283 ;; This function is called by:
  4284 ;;		i1_LCD_print
  4285 ;; This function uses a non-reentrant model
  4286 ;;
  4287                           
  4288     0790                     i1_LCD_data:	
  4289                           ;psect for function i1_LCD_data
  4290                           
  4291                           
  4292                           ;incstack = 0
  4293                           ; Regs used in i1_LCD_data: [wreg]
  4294                           ;i1LCD_data@data stored from wreg
  4295     0790  1283               	bcf	3,5	;RP0=0, select bank0
  4296     0791  1303               	bcf	3,6	;RP1=0, select bank0
  4297     0792  00A2               	movwf	i1LCD_data@data
  4298     0793                     i1l1419:
  4299                           
  4300                           ;env_maestro.c: 226:     RA0 = 1;
  4301     0793  1405               	bsf	5,0	;volatile
  4302                           
  4303                           ;env_maestro.c: 227:     RA1 = 0;
  4304     0794  1085               	bcf	5,1	;volatile
  4305     0795                     i1l1421:
  4306                           
  4307                           ;env_maestro.c: 228:     PORTB = data;
  4308     0795  0822               	movf	i1LCD_data@data,w
  4309     0796  0086               	movwf	6	;volatile
  4310     0797                     i1l1423:
  4311                           
  4312                           ;env_maestro.c: 229:     RA2 = 1;
  4313     0797  1505               	bsf	5,2	;volatile
  4314                           
  4315                           ;env_maestro.c: 230:     _delay((unsigned long)((2)*(4000000/4000.0)));
  4316     0798  3003               	movlw	3
  4317     0799  1283               	bcf	3,5	;RP0=0, select bank0
  4318     079A  1303               	bcf	3,6	;RP1=0, select bank0
  4319     079B  00A1               	movwf	??i1_LCD_data+1
  4320     079C  3097               	movlw	151
  4321     079D  00A0               	movwf	??i1_LCD_data
  4322     079E                     u189_27:
  4323     079E  0BA0               	decfsz	??i1_LCD_data,f
  4324     079F  2F9E               	goto	u189_27
  4325     07A0  0BA1               	decfsz	??i1_LCD_data+1,f
  4326     07A1  2F9E               	goto	u189_27
  4327     07A2  0000               	nop
  4328     07A3                     i1l1425:
  4329                           
  4330                           ;env_maestro.c: 231:     RA2 = 0;
  4331     07A3  1283               	bcf	3,5	;RP0=0, select bank0
  4332     07A4  1303               	bcf	3,6	;RP1=0, select bank0
  4333     07A5  1105               	bcf	5,2	;volatile
  4334     07A6                     i1l146:
  4335     07A6  0008               	return
  4336     07A7                     __end_ofi1_LCD_data:
  4337                           
  4338                           	psect	text26
  4339     07E2                     __ptext26:	
  4340 ;; *************** function i1_LCD_clear *****************
  4341 ;; Defined at:
  4342 ;;		line 257 in file "env_maestro.c"
  4343 ;; Parameters:    Size  Location     Type
  4344 ;;		None
  4345 ;; Auto vars:     Size  Location     Type
  4346 ;;		None
  4347 ;; Return value:  Size  Location     Type
  4348 ;;                  1    wreg      void 
  4349 ;; Registers used:
  4350 ;;		wreg, status,2, status,0, pclath, cstack
  4351 ;; Tracked objects:
  4352 ;;		On entry : 0/0
  4353 ;;		On exit  : 0/0
  4354 ;;		Unchanged: 0/0
  4355 ;; Data sizes:     COMMON   BANK0   BANK1
  4356 ;;      Params:         0       0       0
  4357 ;;      Locals:         0       0       0
  4358 ;;      Temps:          0       2       0
  4359 ;;      Totals:         0       2       0
  4360 ;;Total ram usage:        2 bytes
  4361 ;; Hardware stack levels used: 1
  4362 ;; Hardware stack levels required when called: 1
  4363 ;; This function calls:
  4364 ;;		i1_LCD_command
  4365 ;; This function is called by:
  4366 ;;		_ISR
  4367 ;; This function uses a non-reentrant model
  4368 ;;
  4369                           
  4370     07E2                     i1_LCD_clear:	
  4371                           ;psect for function i1_LCD_clear
  4372                           
  4373     07E2                     i1l1625:	
  4374                           ;incstack = 0
  4375                           ; Regs used in i1_LCD_clear: [wreg+status,2+status,0+pclath+cstack]
  4376                           
  4377                           
  4378                           ;env_maestro.c: 258:     LCD_command(0x01);
  4379     07E2  3001               	movlw	1
  4380     07E3  118A  27A7  118A   	fcall	i1_LCD_command
  4381     07E6                     i1l1627:
  4382                           
  4383                           ;env_maestro.c: 259:     _delay((unsigned long)((2)*(4000000/4000.0)));
  4384     07E6  3003               	movlw	3
  4385     07E7  1283               	bcf	3,5	;RP0=0, select bank0
  4386     07E8  1303               	bcf	3,6	;RP1=0, select bank0
  4387     07E9  00A4               	movwf	??i1_LCD_clear+1
  4388     07EA  3097               	movlw	151
  4389     07EB  00A3               	movwf	??i1_LCD_clear
  4390     07EC                     u190_27:
  4391     07EC  0BA3               	decfsz	??i1_LCD_clear,f
  4392     07ED  2FEC               	goto	u190_27
  4393     07EE  0BA4               	decfsz	??i1_LCD_clear+1,f
  4394     07EF  2FEC               	goto	u190_27
  4395     07F0  0000               	nop
  4396     07F1                     i1l152:
  4397     07F1  0008               	return
  4398     07F2                     __end_ofi1_LCD_clear:
  4399                           
  4400                           	psect	text27
  4401     07A7                     __ptext27:	
  4402 ;; *************** function i1_LCD_command *****************
  4403 ;; Defined at:
  4404 ;;		line 216 in file "env_maestro.c"
  4405 ;; Parameters:    Size  Location     Type
  4406 ;;  command         1    wreg     unsigned char 
  4407 ;; Auto vars:     Size  Location     Type
  4408 ;;  command         1    2[BANK0 ] unsigned char 
  4409 ;; Return value:  Size  Location     Type
  4410 ;;                  1    wreg      void 
  4411 ;; Registers used:
  4412 ;;		wreg
  4413 ;; Tracked objects:
  4414 ;;		On entry : 0/0
  4415 ;;		On exit  : 0/0
  4416 ;;		Unchanged: 0/0
  4417 ;; Data sizes:     COMMON   BANK0   BANK1
  4418 ;;      Params:         0       0       0
  4419 ;;      Locals:         0       1       0
  4420 ;;      Temps:          0       2       0
  4421 ;;      Totals:         0       3       0
  4422 ;;Total ram usage:        3 bytes
  4423 ;; Hardware stack levels used: 1
  4424 ;; This function calls:
  4425 ;;		Nothing
  4426 ;; This function is called by:
  4427 ;;		i1_LCD_clear
  4428 ;;		i1_LCD_setCursor
  4429 ;; This function uses a non-reentrant model
  4430 ;;
  4431                           
  4432     07A7                     i1_LCD_command:	
  4433                           ;psect for function i1_LCD_command
  4434                           
  4435                           
  4436                           ;incstack = 0
  4437                           ; Regs used in i1_LCD_command: [wreg]
  4438                           ;i1LCD_command@command stored from wreg
  4439     07A7  1283               	bcf	3,5	;RP0=0, select bank0
  4440     07A8  1303               	bcf	3,6	;RP1=0, select bank0
  4441     07A9  00A2               	movwf	i1LCD_command@command
  4442     07AA                     i1l1411:
  4443                           
  4444                           ;env_maestro.c: 217:     RA0 = 0;
  4445     07AA  1005               	bcf	5,0	;volatile
  4446                           
  4447                           ;env_maestro.c: 218:     RA1 = 0;
  4448     07AB  1085               	bcf	5,1	;volatile
  4449     07AC                     i1l1413:
  4450                           
  4451                           ;env_maestro.c: 219:     PORTB = command;
  4452     07AC  0822               	movf	i1LCD_command@command,w
  4453     07AD  0086               	movwf	6	;volatile
  4454     07AE                     i1l1415:
  4455                           
  4456                           ;env_maestro.c: 220:     RA2 = 1;
  4457     07AE  1505               	bsf	5,2	;volatile
  4458                           
  4459                           ;env_maestro.c: 221:     _delay((unsigned long)((2)*(4000000/4000.0)));
  4460     07AF  3003               	movlw	3
  4461     07B0  1283               	bcf	3,5	;RP0=0, select bank0
  4462     07B1  1303               	bcf	3,6	;RP1=0, select bank0
  4463     07B2  00A1               	movwf	??i1_LCD_command+1
  4464     07B3  3097               	movlw	151
  4465     07B4  00A0               	movwf	??i1_LCD_command
  4466     07B5                     u191_27:
  4467     07B5  0BA0               	decfsz	??i1_LCD_command,f
  4468     07B6  2FB5               	goto	u191_27
  4469     07B7  0BA1               	decfsz	??i1_LCD_command+1,f
  4470     07B8  2FB5               	goto	u191_27
  4471     07B9  0000               	nop
  4472     07BA                     i1l1417:
  4473                           
  4474                           ;env_maestro.c: 222:     RA2 = 0;
  4475     07BA  1283               	bcf	3,5	;RP0=0, select bank0
  4476     07BB  1303               	bcf	3,6	;RP1=0, select bank0
  4477     07BC  1105               	bcf	5,2	;volatile
  4478     07BD                     i1l143:
  4479     07BD  0008               	return
  4480     07BE                     __end_ofi1_LCD_command:
  4481                           
  4482                           	psect	text28
  4483     0FEA                     __ptext28:	
  4484 ;; *************** function i1_Keyboard_init *****************
  4485 ;; Defined at:
  4486 ;;		line 276 in file "env_maestro.c"
  4487 ;; Parameters:    Size  Location     Type
  4488 ;;		None
  4489 ;; Auto vars:     Size  Location     Type
  4490 ;;		None
  4491 ;; Return value:  Size  Location     Type
  4492 ;;                  1    wreg      void 
  4493 ;; Registers used:
  4494 ;;		wreg, status,2
  4495 ;; Tracked objects:
  4496 ;;		On entry : 0/0
  4497 ;;		On exit  : 0/0
  4498 ;;		Unchanged: 0/0
  4499 ;; Data sizes:     COMMON   BANK0   BANK1
  4500 ;;      Params:         0       0       0
  4501 ;;      Locals:         0       0       0
  4502 ;;      Temps:          0       0       0
  4503 ;;      Totals:         0       0       0
  4504 ;;Total ram usage:        0 bytes
  4505 ;; Hardware stack levels used: 1
  4506 ;; This function calls:
  4507 ;;		Nothing
  4508 ;; This function is called by:
  4509 ;;		_ISR
  4510 ;; This function uses a non-reentrant model
  4511 ;;
  4512                           
  4513     0FEA                     i1_Keyboard_init:	
  4514                           ;psect for function i1_Keyboard_init
  4515                           
  4516     0FEA                     i1l1647:	
  4517                           ;incstack = 0
  4518                           ; Regs used in i1_Keyboard_init: [wreg+status,2]
  4519                           
  4520                           
  4521                           ;env_maestro.c: 277:     TRISAbits.TRISA3 = 0;
  4522     0FEA  1683               	bsf	3,5	;RP0=1, select bank1
  4523     0FEB  1303               	bcf	3,6	;RP1=0, select bank1
  4524     0FEC  1185               	bcf	5,3	;volatile
  4525     0FED                     i1l1649:
  4526                           
  4527                           ;env_maestro.c: 278:     TRISA = 0x00;
  4528     0FED  0185               	clrf	5	;volatile
  4529     0FEE                     i1l1651:
  4530                           
  4531                           ;env_maestro.c: 279:     TRISB = 0x0F;
  4532     0FEE  300F               	movlw	15
  4533     0FEF  0086               	movwf	6	;volatile
  4534     0FF0                     i1l1653:
  4535                           
  4536                           ;env_maestro.c: 280:     PORTB = 0xF0;
  4537     0FF0  30F0               	movlw	240
  4538     0FF1  1283               	bcf	3,5	;RP0=0, select bank0
  4539     0FF2  1303               	bcf	3,6	;RP1=0, select bank0
  4540     0FF3  0086               	movwf	6	;volatile
  4541     0FF4                     i1l168:
  4542     0FF4  0008               	return
  4543     0FF5                     __end_ofi1_Keyboard_init:
  4544                           
  4545                           	psect	text29
  4546     066E                     __ptext29:	
  4547 ;; *************** function i1_I2C_Master_Init *****************
  4548 ;; Defined at:
  4549 ;;		line 328 in file "env_maestro.c"
  4550 ;; Parameters:    Size  Location     Type
  4551 ;;  c               4   14[BANK0 ] const unsigned long 
  4552 ;; Auto vars:     Size  Location     Type
  4553 ;;		None
  4554 ;; Return value:  Size  Location     Type
  4555 ;;                  1    wreg      void 
  4556 ;; Registers used:
  4557 ;;		wreg, status,2, status,0, btemp+1, pclath, cstack
  4558 ;; Tracked objects:
  4559 ;;		On entry : 0/0
  4560 ;;		On exit  : 0/0
  4561 ;;		Unchanged: 0/0
  4562 ;; Data sizes:     COMMON   BANK0   BANK1
  4563 ;;      Params:         0       4       0
  4564 ;;      Locals:         0       0       0
  4565 ;;      Temps:          0       4       0
  4566 ;;      Totals:         0       8       0
  4567 ;;Total ram usage:        8 bytes
  4568 ;; Hardware stack levels used: 1
  4569 ;; Hardware stack levels required when called: 1
  4570 ;; This function calls:
  4571 ;;		i1___lldiv
  4572 ;; This function is called by:
  4573 ;;		_ISR
  4574 ;; This function uses a non-reentrant model
  4575 ;;
  4576                           
  4577     066E                     i1_I2C_Master_Init:	
  4578                           ;psect for function i1_I2C_Master_Init
  4579                           
  4580     066E                     i1l1657:	
  4581                           ;incstack = 0
  4582                           ; Regs used in i1_I2C_Master_Init: [wreg+status,2+status,0+btemp+1+pclath+cstack]
  4583                           
  4584                           
  4585                           ;env_maestro.c: 329:     SSPCON = 0b00101000;
  4586     066E  3028               	movlw	40
  4587     066F  1283               	bcf	3,5	;RP0=0, select bank0
  4588     0670  1303               	bcf	3,6	;RP1=0, select bank0
  4589     0671  0094               	movwf	20	;volatile
  4590     0672                     i1l1659:
  4591                           
  4592                           ;env_maestro.c: 330:    SSPADD = (unsigned char)((4000000 / (4 * c)) - 1);
  4593     0672  082E               	movf	i1I2C_Master_Init@c,w
  4594     0673  00B2               	movwf	??i1_I2C_Master_Init
  4595     0674  082F               	movf	i1I2C_Master_Init@c+1,w
  4596     0675  00B3               	movwf	??i1_I2C_Master_Init+1
  4597     0676  0830               	movf	i1I2C_Master_Init@c+2,w
  4598     0677  00B4               	movwf	??i1_I2C_Master_Init+2
  4599     0678  0831               	movf	i1I2C_Master_Init@c+3,w
  4600     0679  00B5               	movwf	??i1_I2C_Master_Init+3
  4601     067A  3002               	movlw	2
  4602     067B                     u115_25:
  4603     067B  1003               	clrc
  4604     067C  0DB2               	rlf	??i1_I2C_Master_Init,f
  4605     067D  0DB3               	rlf	??i1_I2C_Master_Init+1,f
  4606     067E  0DB4               	rlf	??i1_I2C_Master_Init+2,f
  4607     067F  0DB5               	rlf	??i1_I2C_Master_Init+3,f
  4608     0680                     u115_20:
  4609     0680  3EFF               	addlw	-1
  4610     0681  1D03               	skipz
  4611     0682  2E7B               	goto	u115_25
  4612     0683  0835               	movf	??i1_I2C_Master_Init+3,w
  4613     0684  00A3               	movwf	i1___lldiv@divisor+3
  4614     0685  0834               	movf	??i1_I2C_Master_Init+2,w
  4615     0686  00A2               	movwf	i1___lldiv@divisor+2
  4616     0687  0833               	movf	??i1_I2C_Master_Init+1,w
  4617     0688  00A1               	movwf	i1___lldiv@divisor+1
  4618     0689  0832               	movf	??i1_I2C_Master_Init,w
  4619     068A  00A0               	movwf	i1___lldiv@divisor
  4620     068B  3000               	movlw	0
  4621     068C  00A7               	movwf	i1___lldiv@dividend+3
  4622     068D  303D               	movlw	61
  4623     068E  00A6               	movwf	i1___lldiv@dividend+2
  4624     068F  3009               	movlw	9
  4625     0690  00A5               	movwf	i1___lldiv@dividend+1
  4626     0691  3000               	movlw	0
  4627     0692  00A4               	movwf	i1___lldiv@dividend
  4628     0693  118A  2576  118A   	fcall	i1___lldiv
  4629     0696  1283               	bcf	3,5	;RP0=0, select bank0
  4630     0697  1303               	bcf	3,6	;RP1=0, select bank0
  4631     0698  0820               	movf	?i1___lldiv,w
  4632     0699  3EFF               	addlw	255
  4633     069A  1683               	bsf	3,5	;RP0=1, select bank1
  4634     069B  1303               	bcf	3,6	;RP1=0, select bank1
  4635     069C  0093               	movwf	19	;volatile
  4636     069D                     i1l1661:
  4637                           
  4638                           ;env_maestro.c: 332:     SSPSTAT = 0x00;
  4639     069D  0194               	clrf	20	;volatile
  4640     069E                     i1l1663:
  4641                           
  4642                           ;env_maestro.c: 333:     TRISC3 = 1;
  4643     069E  1587               	bsf	7,3	;volatile
  4644     069F                     i1l1665:
  4645                           
  4646                           ;env_maestro.c: 334:     TRISC4 = 1;
  4647     069F  1607               	bsf	7,4	;volatile
  4648     06A0                     i1l188:
  4649     06A0  0008               	return
  4650     06A1                     __end_ofi1_I2C_Master_Init:
  4651                           
  4652                           	psect	text30
  4653     0576                     __ptext30:	
  4654 ;; *************** function i1___lldiv *****************
  4655 ;; Defined at:
  4656 ;;		line 5 in file "C:\Program Files\Microchip\xc8\v2.46\pic\sources\c99\common\__lldiv.c"
  4657 ;; Parameters:    Size  Location     Type
  4658 ;;  divisor         4    0[BANK0 ] unsigned long 
  4659 ;;  dividend        4    4[BANK0 ] unsigned long 
  4660 ;; Auto vars:     Size  Location     Type
  4661 ;;  quotient        4    9[BANK0 ] unsigned long 
  4662 ;;  counter         1   13[BANK0 ] unsigned char 
  4663 ;; Return value:  Size  Location     Type
  4664 ;;                  4    0[BANK0 ] unsigned long 
  4665 ;; Registers used:
  4666 ;;		wreg, status,2, status,0, btemp+1
  4667 ;; Tracked objects:
  4668 ;;		On entry : 0/0
  4669 ;;		On exit  : 0/0
  4670 ;;		Unchanged: 0/0
  4671 ;; Data sizes:     COMMON   BANK0   BANK1
  4672 ;;      Params:         0       8       0
  4673 ;;      Locals:         0       5       0
  4674 ;;      Temps:          0       1       0
  4675 ;;      Totals:         0      14       0
  4676 ;;Total ram usage:       14 bytes
  4677 ;; Hardware stack levels used: 1
  4678 ;; This function calls:
  4679 ;;		Nothing
  4680 ;; This function is called by:
  4681 ;;		i1_I2C_Master_Init
  4682 ;; This function uses a non-reentrant model
  4683 ;;
  4684                           
  4685     0576                     i1___lldiv:	
  4686                           ;psect for function i1___lldiv
  4687                           
  4688     0576                     i1l1427:	
  4689                           ;incstack = 0
  4690                           ; Regs used in i1___lldiv: [wreg+status,2+status,0+btemp+1]
  4691                           
  4692     0576  3000               	movlw	0
  4693     0577  1283               	bcf	3,5	;RP0=0, select bank0
  4694     0578  1303               	bcf	3,6	;RP1=0, select bank0
  4695     0579  00AC               	movwf	i1___lldiv@quotient+3
  4696     057A  3000               	movlw	0
  4697     057B  00AB               	movwf	i1___lldiv@quotient+2
  4698     057C  3000               	movlw	0
  4699     057D  00AA               	movwf	i1___lldiv@quotient+1
  4700     057E  3000               	movlw	0
  4701     057F  00A9               	movwf	i1___lldiv@quotient
  4702     0580  0823               	movf	i1___lldiv@divisor+3,w
  4703     0581  0422               	iorwf	i1___lldiv@divisor+2,w
  4704     0582  0421               	iorwf	i1___lldiv@divisor+1,w
  4705     0583  0420               	iorwf	i1___lldiv@divisor,w
  4706     0584  1903               	skipnz
  4707     0585  2D87               	goto	u88_21
  4708     0586  2D88               	goto	u88_20
  4709     0587                     u88_21:
  4710     0587  2DD5               	goto	i1l1449
  4711     0588                     u88_20:
  4712     0588                     i1l1429:
  4713     0588  01AD               	clrf	i1___lldiv@counter
  4714     0589  0AAD               	incf	i1___lldiv@counter,f
  4715     058A  2D98               	goto	i1l1435
  4716     058B                     i1l1431:
  4717     058B  3001               	movlw	1
  4718     058C  00A8               	movwf	??i1___lldiv
  4719     058D                     u89_25:
  4720     058D  1003               	clrc
  4721     058E  0DA0               	rlf	i1___lldiv@divisor,f
  4722     058F  0DA1               	rlf	i1___lldiv@divisor+1,f
  4723     0590  0DA2               	rlf	i1___lldiv@divisor+2,f
  4724     0591  0DA3               	rlf	i1___lldiv@divisor+3,f
  4725     0592  0BA8               	decfsz	??i1___lldiv,f
  4726     0593  2D8D               	goto	u89_25
  4727     0594                     i1l1433:
  4728     0594  3001               	movlw	1
  4729     0595  00FF               	movwf	btemp+1
  4730     0596  087F               	movf	btemp+1,w
  4731     0597  07AD               	addwf	i1___lldiv@counter,f
  4732     0598                     i1l1435:
  4733     0598  1FA3               	btfss	i1___lldiv@divisor+3,7
  4734     0599  2D9B               	goto	u90_21
  4735     059A  2D9C               	goto	u90_20
  4736     059B                     u90_21:
  4737     059B  2D8B               	goto	i1l1431
  4738     059C                     u90_20:
  4739     059C                     i1l1437:
  4740     059C  3001               	movlw	1
  4741     059D  00A8               	movwf	??i1___lldiv
  4742     059E                     u91_25:
  4743     059E  1003               	clrc
  4744     059F  0DA9               	rlf	i1___lldiv@quotient,f
  4745     05A0  0DAA               	rlf	i1___lldiv@quotient+1,f
  4746     05A1  0DAB               	rlf	i1___lldiv@quotient+2,f
  4747     05A2  0DAC               	rlf	i1___lldiv@quotient+3,f
  4748     05A3  0BA8               	decfsz	??i1___lldiv,f
  4749     05A4  2D9E               	goto	u91_25
  4750     05A5                     i1l1439:
  4751     05A5  0823               	movf	i1___lldiv@divisor+3,w
  4752     05A6  0227               	subwf	i1___lldiv@dividend+3,w
  4753     05A7  1D03               	skipz
  4754     05A8  2DB3               	goto	u92_25
  4755     05A9  0822               	movf	i1___lldiv@divisor+2,w
  4756     05AA  0226               	subwf	i1___lldiv@dividend+2,w
  4757     05AB  1D03               	skipz
  4758     05AC  2DB3               	goto	u92_25
  4759     05AD  0821               	movf	i1___lldiv@divisor+1,w
  4760     05AE  0225               	subwf	i1___lldiv@dividend+1,w
  4761     05AF  1D03               	skipz
  4762     05B0  2DB3               	goto	u92_25
  4763     05B1  0820               	movf	i1___lldiv@divisor,w
  4764     05B2  0224               	subwf	i1___lldiv@dividend,w
  4765     05B3                     u92_25:
  4766     05B3  1C03               	skipc
  4767     05B4  2DB6               	goto	u92_21
  4768     05B5  2DB7               	goto	u92_20
  4769     05B6                     u92_21:
  4770     05B6  2DC6               	goto	i1l1445
  4771     05B7                     u92_20:
  4772     05B7                     i1l1441:
  4773     05B7  0820               	movf	i1___lldiv@divisor,w
  4774     05B8  02A4               	subwf	i1___lldiv@dividend,f
  4775     05B9  0821               	movf	i1___lldiv@divisor+1,w
  4776     05BA  1C03               	skipc
  4777     05BB  0F21               	incfsz	i1___lldiv@divisor+1,w
  4778     05BC  02A5               	subwf	i1___lldiv@dividend+1,f
  4779     05BD  0822               	movf	i1___lldiv@divisor+2,w
  4780     05BE  1C03               	skipc
  4781     05BF  0F22               	incfsz	i1___lldiv@divisor+2,w
  4782     05C0  02A6               	subwf	i1___lldiv@dividend+2,f
  4783     05C1  0823               	movf	i1___lldiv@divisor+3,w
  4784     05C2  1C03               	skipc
  4785     05C3  0F23               	incfsz	i1___lldiv@divisor+3,w
  4786     05C4  02A7               	subwf	i1___lldiv@dividend+3,f
  4787     05C5                     i1l1443:
  4788     05C5  1429               	bsf	i1___lldiv@quotient,0
  4789     05C6                     i1l1445:
  4790     05C6  3001               	movlw	1
  4791     05C7                     u93_25:
  4792     05C7  1003               	clrc
  4793     05C8  0CA3               	rrf	i1___lldiv@divisor+3,f
  4794     05C9  0CA2               	rrf	i1___lldiv@divisor+2,f
  4795     05CA  0CA1               	rrf	i1___lldiv@divisor+1,f
  4796     05CB  0CA0               	rrf	i1___lldiv@divisor,f
  4797     05CC  3EFF               	addlw	-1
  4798     05CD  1D03               	skipz
  4799     05CE  2DC7               	goto	u93_25
  4800     05CF                     i1l1447:
  4801     05CF  3001               	movlw	1
  4802     05D0  02AD               	subwf	i1___lldiv@counter,f
  4803     05D1  1D03               	btfss	3,2
  4804     05D2  2DD4               	goto	u94_21
  4805     05D3  2DD5               	goto	u94_20
  4806     05D4                     u94_21:
  4807     05D4  2D9C               	goto	i1l1437
  4808     05D5                     u94_20:
  4809     05D5                     i1l1449:
  4810     05D5  082C               	movf	i1___lldiv@quotient+3,w
  4811     05D6  00A3               	movwf	?i1___lldiv+3
  4812     05D7  082B               	movf	i1___lldiv@quotient+2,w
  4813     05D8  00A2               	movwf	?i1___lldiv+2
  4814     05D9  082A               	movf	i1___lldiv@quotient+1,w
  4815     05DA  00A1               	movwf	?i1___lldiv+1
  4816     05DB  0829               	movf	i1___lldiv@quotient,w
  4817     05DC  00A0               	movwf	?i1___lldiv
  4818     05DD                     i1l345:
  4819     05DD  0008               	return
  4820     05DE                     __end_ofi1___lldiv:
  4821     007E                     btemp	set	126	;btemp
  4822     007E                     wtemp0	set	126
  4823                           
  4824                           	psect	config
  4825                           
  4826                           ;Config register CONFIG @ 0x2007
  4827                           ;	Oscillator Selection bits
  4828                           ;	FOSC = XT, XT oscillator
  4829                           ;	Watchdog Timer Enable bit
  4830                           ;	WDTE = OFF, WDT disabled
  4831                           ;	Power-up Timer Enable bit
  4832                           ;	PWRTE = OFF, PWRT disabled
  4833                           ;	Brown-out Reset Enable bit
  4834                           ;	BOREN = ON, BOR enabled
  4835                           ;	Low-Voltage (Single-Supply) In-Circuit Serial Programming Enable bit
  4836                           ;	LVP = OFF, RB3 is digital I/O, HV on MCLR must be used for programming
  4837                           ;	Data EEPROM Memory Code Protection bit
  4838                           ;	CPD = OFF, Data EEPROM code protection off
  4839                           ;	Flash Program Memory Write Enable bits
  4840                           ;	WRT = OFF, Write protection off; all program memory may be written to by EECON control
  4841                           ;	In-Circuit Debugger Mode bit
  4842                           ;	DEBUG = OFF, In-Circuit Debugger disabled, RB6 and RB7 are general purpose I/O pins
  4843                           ;	Flash Program Memory Code Protection bit
  4844                           ;	CP = OFF, Code protection off
  4845     2007                     	org	8199
  4846     2007  3F79               	dw	16249

Data Sizes:
    Strings     93
    Constant    16
    Data        0
    BSS         44
    Persistent  0
    Stack       0

Auto Spaces:
    Space          Size  Autos    Used
    COMMON            0      0       0
    BANK0            94     44      62
    BANK1            94     22      48

Pointer List with Targets:

    atoi@s	PTR const unsigned char  size(1) Largest target is 4
		 -> asciiValue(BANK1[4]), 

    LCD_print@string	PTR const unsigned char  size(2) Largest target is 17
		 -> displayString(BANK1[17]), ISR@receiveBuffer(BANK0[16]), STR_1(CODE[16]), STR_2(CODE[17]), 
		 -> STR_3(CODE[15]), STR_4(CODE[16]), STR_5(CODE[13]), STR_6(CODE[16]), 

    memset@dest	PTR void  size(1) Largest target is 17
		 -> displayString(BANK1[17]), 

    memset@p	PTR unsigned char  size(1) Largest target is 17
		 -> displayString(BANK1[17]), 

    sp__memset	PTR void  size(1) Largest target is 17
		 -> displayString(BANK1[17]), 


Critical Paths under _main in COMMON

    None.

Critical Paths under _ISR in COMMON

    None.

Critical Paths under _main in BANK0

    _main->_atoi
    _atoi->___wmul
    _LCD_setCursor->_LCD_command
    _LCD_print->_LCD_data
    _LCD_init->_LCD_command
    _LCD_clear->_LCD_command
    _I2C_Master_Init->___lldiv

Critical Paths under _ISR in BANK0

    _ISR->i1_I2C_Master_Init
    i1_LCD_setCursor->i1_LCD_command
    i1_LCD_print->i1_LCD_data
    i1_LCD_clear->i1_LCD_command
    i1_I2C_Master_Init->i1___lldiv

Critical Paths under _main in BANK1

    _main->_I2C_Master_Init

Critical Paths under _ISR in BANK1

    None.

Call Graph Tables:

 ---------------------------------------------------------------------------------
 (Depth) Function   	        Calls       Base Space   Used Autos Params    Refs
 ---------------------------------------------------------------------------------
 (0) _main                                                14    14      0    4132
                                              8 BANK1     14    14      0
                    _I2C_Master_Init
                   _I2C_Master_Start
                    _I2C_Master_Stop
                   _I2C_Master_Write
                     _I2C_Slave_Init
                      _Keyboard_init
                          _LCD_clear
                           _LCD_init
                          _LCD_print
                      _LCD_setCursor
                _Prepare_Keypad_Pins
                   _Prepare_LCD_Pins
                        _Read_Keypad
                               _atoi
                             _memset
 ---------------------------------------------------------------------------------
 (1) _memset                                               6     2      4     281
                                             30 BANK0      6     2      4
 ---------------------------------------------------------------------------------
 (1) _atoi                                                 8     6      2     505
                                             36 BANK0      8     6      2
                             ___wmul
 ---------------------------------------------------------------------------------
 (2) ___wmul                                               6     2      4     244
                                             30 BANK0      6     2      4
 ---------------------------------------------------------------------------------
 (1) _Read_Keypad                                          6     6      0     202
                                             30 BANK0      6     6      0
 ---------------------------------------------------------------------------------
 (1) _Prepare_LCD_Pins                                     0     0      0       0
 ---------------------------------------------------------------------------------
 (1) _Prepare_Keypad_Pins                                  0     0      0       0
 ---------------------------------------------------------------------------------
 (1) _LCD_setCursor                                        5     4      1     922
                                             33 BANK0      5     4      1
                        _LCD_command
 ---------------------------------------------------------------------------------
 (1) _LCD_print                                            2     0      2     673
                                             33 BANK0      2     0      2
                           _LCD_data
 ---------------------------------------------------------------------------------
 (2) _LCD_data                                             3     3      0      22
                                             30 BANK0      3     3      0
 ---------------------------------------------------------------------------------
 (1) _LCD_init                                             2     2      0      22
                                             33 BANK0      2     2      0
                        _LCD_command
 ---------------------------------------------------------------------------------
 (1) _LCD_clear                                            2     2      0      22
                                             33 BANK0      2     2      0
                        _LCD_command
 ---------------------------------------------------------------------------------
 (2) _LCD_command                                          3     3      0      22
                                             30 BANK0      3     3      0
 ---------------------------------------------------------------------------------
 (1) _Keyboard_init                                        0     0      0       0
 ---------------------------------------------------------------------------------
 (1) _I2C_Slave_Init                                       1     1      0      22
                                             30 BANK0      1     1      0
 ---------------------------------------------------------------------------------
 (1) _I2C_Master_Write                                     2     0      2     250
                                             30 BANK0      2     0      2
                    _I2C_Master_Wait
 ---------------------------------------------------------------------------------
 (1) _I2C_Master_Stop                                      0     0      0       0
                    _I2C_Master_Wait
 ---------------------------------------------------------------------------------
 (1) _I2C_Master_Start                                     0     0      0       0
                    _I2C_Master_Wait
 ---------------------------------------------------------------------------------
 (2) _I2C_Master_Wait                                      0     0      0       0
 ---------------------------------------------------------------------------------
 (1) _I2C_Master_Init                                      8     4      4     490
                                              0 BANK1      8     4      4
                            ___lldiv
 ---------------------------------------------------------------------------------
 (2) ___lldiv                                             14     6      8     314
                                             30 BANK0     14     6      8
 ---------------------------------------------------------------------------------
 Estimated maximum stack depth 2
 ---------------------------------------------------------------------------------
 (Depth) Function   	        Calls       Base Space   Used Autos Params    Refs
 ---------------------------------------------------------------------------------
 (3) _ISR                                                  8     8      0     692
                                             22 BANK0      8     8      0
                  i1_I2C_Master_Init
                    i1_Keyboard_init
                        i1_LCD_clear
                        i1_LCD_print
                    i1_LCD_setCursor
                 i1_Prepare_LCD_Pins
 ---------------------------------------------------------------------------------
 (4) i1_Prepare_LCD_Pins                                   0     0      0       0
 ---------------------------------------------------------------------------------
 (4) i1_LCD_setCursor                                      5     4      1     218
                                              3 BANK0      5     4      1
                      i1_LCD_command
 ---------------------------------------------------------------------------------
 (4) i1_LCD_print                                          2     0      2     145
                                              3 BANK0      2     0      2
                         i1_LCD_data
 ---------------------------------------------------------------------------------
 (5) i1_LCD_data                                           3     3      0      22
                                              0 BANK0      3     3      0
 ---------------------------------------------------------------------------------
 (4) i1_LCD_clear                                          2     2      0      22
                                              3 BANK0      2     2      0
                      i1_LCD_command
 ---------------------------------------------------------------------------------
 (5) i1_LCD_command                                        3     3      0      22
                                              0 BANK0      3     3      0
 ---------------------------------------------------------------------------------
 (4) i1_Keyboard_init                                      0     0      0       0
 ---------------------------------------------------------------------------------
 (4) i1_I2C_Master_Init                                    8     4      4     262
                                             14 BANK0      8     4      4
                          i1___lldiv
 ---------------------------------------------------------------------------------
 (5) i1___lldiv                                           14     6      8     214
                                              0 BANK0     14     6      8
 ---------------------------------------------------------------------------------
 Estimated maximum stack depth 5
 ---------------------------------------------------------------------------------

 Call Graph Graphs:

 _main (ROOT)
   _I2C_Master_Init
     ___lldiv
   _I2C_Master_Start
     _I2C_Master_Wait
   _I2C_Master_Stop
     _I2C_Master_Wait
   _I2C_Master_Write
     _I2C_Master_Wait
   _I2C_Slave_Init
   _Keyboard_init
   _LCD_clear
     _LCD_command
   _LCD_init
     _LCD_command
   _LCD_print
     _LCD_data
   _LCD_setCursor
     _LCD_command
   _Prepare_Keypad_Pins
   _Prepare_LCD_Pins
   _Read_Keypad
   _atoi
     ___wmul
   _memset

 _ISR (ROOT)
   i1_I2C_Master_Init
     i1___lldiv
   i1_Keyboard_init
   i1_LCD_clear
     i1_LCD_command
   i1_LCD_print
     i1_LCD_data
   i1_LCD_setCursor
     i1_LCD_command
   i1_Prepare_LCD_Pins

 Address spaces:
Name               Size   Autos  Total    Cost      Usage
BITCOMMON            0      0       0       0        0.0%
EEDATA              80      0       0       0        0.0%
NULL                 0      0       0       0        0.0%
CODE                 0      0       0       0        0.0%
BITSFR0              0      0       0       1        0.0%
SFR0                 0      0       0       1        0.0%
COMMON               0      0       0       1        0.0%
BITSFR1              0      0       0       2        0.0%
SFR1                 0      0       0       2        0.0%
STACK                0      0       0       2        0.0%
BITBANK0            5E      0       0       3        0.0%
BANK0               5E     2C      3E       4       66.0%
BITSFR3              0      0       0       4        0.0%
SFR3                 0      0       0       4        0.0%
BITBANK1            5E      0       0       5        0.0%
BITSFR2              0      0       0       5        0.0%
SFR2                 0      0       0       5        0.0%
BANK1               5E     16      30       6       51.1%
ABS                  0      0      6E       7        0.0%
DATA                 0      0      6E       8        0.0%


Microchip Technology PIC Macro Assembler V2.46 build 20240104201356 
Symbol Table                                                                                   Fri Apr 26 19:58:23 2024

       ?_Prepare_Keypad_Pins 0020                            pc 0002                  _SSPSTATbits 0094  
                         fsr 0004          ___wmul@multiplicand 0040                          l200 0FD0  
                        l120 01C0                          l203 0FD8                          l117 0282  
                        l206 07D1                          l143 078F                          l311 06C7  
                        l152 07E1                          l146 0778                          l149 062A  
                        l165 06E9                          l309 06AF                          l158 073B  
                        l182 0FC2                          l159 0745                          l168 0FFF  
                        l345 0575                          l185 0FE9                          l194 07FE  
                        l178 03D0                          l179 0418                          l188 066D  
                        l197 0FC9                          l781 050D                          l787 0729  
                        _GIE 005F                          _RA0 0028                          _RA1 0029  
                        _RA2 002A                          _PEN 048A                          _ISR 02AD  
                        u800 06C3                          u801 06C2                          u810 0520  
                        u811 051F                          _SEN 0488                          u830 0534  
                        u750 07FA                          u831 0533                          u751 07F9  
                        u760 07FE                          u825 0525                          u761 07FD  
                        u850 054F                          u770 06A9                          u851 054E  
                        u771 06A8                          u845 0536                          u870 056D  
                        u871 056C                          u855 054B                          u960 038F  
                        u865 055F                          u961 038E                          u785 06B0  
                        u795 06B7                          u965 038B                          u990 03C1  
                        u974 0398                          u991 03C0                          u975 0396  
                        u984 03B8                          u985 03B6                          fsr0 0004  
                        indf 0000                         ?_ISR 0020                         l2001 017C  
                       l2011 0191                         l2003 0180                         l2021 01A5  
                       l2013 0192                         l2005 0186                         l2023 01AB  
                       l2007 018A                         l2015 0194                         l1401 055D  
                       l2041 01D3                         l2033 01C2                         l2025 01B1  
                       l2017 0199                         l2009 018E                         l1403 055E  
                       l2051 01F9                         l2043 01D8                         l2035 01C5  
                       l2027 01B5                         l2019 019F                         l1405 0567  
                       l1501 03A2                         l2061 0226                         l2053 0206  
                       l2045 01DE                         l2037 01CA                         l2029 01BA  
                       l1407 056D                         l1351 077E                         l1503 03AC  
                       l2071 0249                         l2063 022C                         l2055 020B  
                       l2047 01E6                         l2039 01CD                         l1353 0780  
                       l1361 0769                         l1513 03C1                         l1601 04B5  
                       l2081 0260                         l2073 024F                         l2065 0237  
                       l2057 0211                         l2049 01F3                         l1355 078C  
                       l1363 0775                         l1515 03D1                         l1523 03F7  
                       l1531 0417                         l1371 06A1                         l1611 04CD  
                       l1603 04BD                         l2091 0285                         l2083 0269  
                       l2067 023F                         l2059 0219                         l2075 0253  
                       l1365 07F2                         l1541 0FD4                         l1349 077C  
                       l1461 05F2                         l1453 05DE                         l1357 0765  
                       l1525 03FD                         l1517 03DC                         l1509 03B0  
                       l1381 06C3                         l1373 06A5                         l1621 0509  
                       l1605 04BF                         l2093 028C                         l2077 0256  
                       l2069 0245                         l1391 052C                         l1367 07F2  
                       l1535 0FC3                         l1543 0FCA                         l1471 0FF5  
                       l1551 07D6                         l1463 0601                         l1455 05E2  
                       l1359 0767                         l1527 040A                         l1519 03E3  
                       l1375 06A9                         l1615 04ED                         l1607 04C4  
                       l2095 0295                         l2079 0259                         l2087 0274  
                       l1393 0530                         l1385 050E                         l1369 07FA  
                       l1537 0FC6                         l1545 0FCD                         l1473 0FF8  
                       l1465 060C                         l1457 05E3                         l1561 0741  
                       l1553 072D                         l1377 06B6                         l1617 04F8  
                       l2089 0282                         l2097 029F                         l1395 0534  
                       l1387 0520                         l1539 0FD1                         l1475 0FF9  
                       l1467 061B                         l1459 05EE                         l1563 06C8  
                       l1555 0732                         l1547 0FBF                         l1491 037E  
                       l1379 06BD                         l1619 04FD                         l1571 070F  
                       l1397 053D                         l1389 0523                         l1581 07C9  
                       l1477 0FFB                         l1549 07D2                         l1469 061F  
                       l1565 06C9                         l1557 0737                         l1493 0382  
                       l1573 0712                         l1399 054F                         l1911 062F  
                       l1591 07D0                         l1583 07CC                         l1567 06D3  
                       l1559 073D                         l1575 0717                         l1913 066A  
                       l1585 07CD                         l1569 06DB                         l1489 0FE1  
                       l1497 0390                         l1593 0499                         l1577 071B  
                       l1921 0029                         l1915 066B                         l1587 07CE  
                       l1579 07C1                         l1499 039E                         l1595 049D  
                       l1931 004A                         l1923 0036                         l1917 066C  
                       l1909 062B                         l1589 07CF                         l1597 04A1  
                       l1941 0086                         l1933 0056                         l1925 0039  
                       l1599 04AA                         l1951 00A1                         l1943 0091  
                       l1935 005B                         l1927 003F                         l1919 0023  
                       l1961 00D9                         l1953 00AA                         l1945 0094  
                       l1937 0071                         l1929 0045                         l1971 00F3  
                       l1963 00DC                         l1955 00BA                         l1947 0097  
                       l1939 0079                         l1981 0114                         l1973 00FA  
                       l1965 00DD                         l1957 00C9                         l1949 009E  
                       l1991 014E                         l1983 011A                         l1967 00E3  
                       l1959 00CC                         l1975 0104                         l1993 0156  
                       l1985 012A                         l1977 0109                         l1969 00EA  
                       l1995 0163                         l1987 0137                         l1979 010F  
                       l1997 0169                         l1989 0146                         l1999 0174  
                       STR_1 046A                         STR_2 0439                         STR_3 047A  
                       STR_4 044A                         STR_5 0489                         STR_6 045A  
               ?_LCD_command 0020                         u1010 03D0                         u1011 03CF  
                       u1004 03C7                         u1100 04CC                         u1005 03C5  
                       u1101 04CB                         u1030 040A                         u1110 04F8  
                       u1031 0409                         u1111 04F7                         u1040 0732  
                       u1120 04FD                         u1041 0731                         u1025 03E8  
                       u1121 04FC                         u1050 06E9                         u1051 06E8  
                       u1035 0406                         u1060 0729                         u1061 0728  
                       u1070 04AA                         u1071 04A9                         u1080 04B5  
                       u1081 04B4                         u1090 04BD                         u1091 04BC  
                       u1500 0045                         u1501 0044                         u1510 004A  
                       u1511 0049                         u1600 0174                         u1520 0086  
                       u1601 0173                         u1521 0085                         u1610 0186  
                       u1530 0109                         u1611 0185                         u1531 0108  
                       u1700 0206                         u1620 0199                         u1540 010F  
                       u1701 0205                         u1621 0198                         u1605 0170  
                       u1541 010E                         u1525 0082                         u1710 0211  
                       u1630 019F                         u1550 0114                         u1711 0210  
                       u1631 019E                         u1551 0113                         u1720 0237  
                       u1640 01A5                         u1560 011A                         u1721 0236  
                       u1705 0202                         u1641 01A4                         u1561 0119  
                       u1490 063F                         u1730 0245                         u1650 01AB  
                       u1570 0137                         u1731 0244                         u1651 01AA  
                       u1571 0136                         u1740 024F                         u1660 01BF  
                       u1580 0146                         u1741 024E                         u1725 0233  
                       u1661 01BE                         u1581 0145                         u1670 01CA  
                       u1590 014E                         u1495 063A                         u1807 05EA  
                       u1671 01C9                         u1591 014D                         u1575 0133  
                       u1680 01D3                         u1817 05F8                         u1681 01D2  
                       u1585 0142                         u1690 01DE                         u1827 0607  
                       u1691 01DD                         u1837 0616                         u1757 00C2  
                       u1847 0625                         u1767 02A5                         u1857 07DC  
                       u1777 03A8                         u1867 0787                         u1787 03D7  
                       _PEIE 005E                         u1797 0770            ??i1_Keyboard_init 0000  
                ?i1_LCD_data 0020                         _atoi 0496            i1___lldiv@divisor 0020  
                       _main 0023                         btemp 007E            i1___lldiv@counter 002D  
          i1LCD_print@string 0023            ??i1_LCD_setCursor 0000                         start 0011  
      ??_Prepare_Keypad_Pins 0000   __end_ofi1_Prepare_LCD_Pins 0FBF                        ??_ISR 0036  
              ??_Read_Keypad 003E             ?_I2C_Master_Init 00BA             ?_I2C_Master_Wait 0020  
           ?_I2C_Master_Stop 0020             __end_of_LCD_data 0779             __end_of_LCD_init 062B  
                      ?_atoi 0044                        ?_main 0020              __end_of___lldiv 0576  
                      i1l143 07BD                        i1l223 0374                        i1l152 07F1  
                      i1l216 02C3                        i1l146 07A6                        i1l218 0371  
                      i1l165 070B                        i1l158 0757                        i1l182 0FBE  
                      i1l159 0761                        i1l168 0FF4                        i1l345 05DD  
                      i1l188 06A0                        _PORTB 0006                 ?i1_LCD_clear 0020  
                      _TRISA 0085                        _TRISB 0086                        _SSPIE 0463  
                      u90_20 059C                        _SSPIF 0063                        u90_21 059B  
                      u91_25 059E                        u92_20 05B7                        u92_21 05B6  
                      u92_25 05B3                        u93_25 05C7                        u94_20 05D5  
                      u94_21 05D4                        u88_20 0588                        u88_21 0587  
                      u89_25 058D                 ?i1_LCD_print 0023           i1___lldiv@dividend 0024  
                      atoi@n 0049                        atoi@s 004B                        main@i 00C5  
                      pclath 000A                        status 0003                        wtemp0 007E  
            __initialization 0013                 __end_of_atoi 050E                 __end_of_main 02AD  
              _Keyboard_init 0FF5           i1___lldiv@quotient 0029                main@asciiCode 00C7  
                     ??_atoi 0046                       ??_main 00C2                _LCD_setCursor 072A  
        __end_of_Read_Keypad 0419            ?_I2C_Master_Start 0020            ?_I2C_Master_Write 003E  
          __end_of_LCD_clear 07E2            __end_of_LCD_print 06EA           ??_I2C_Master_Start 0000  
                     _ADCON1 009F           ??_I2C_Master_Write 0000             _Prepare_LCD_Pins 0FBF  
                     i1l1411 07AA                       i1l1413 07AC                       i1l1421 0795  
                     i1l1431 058B                       i1l1415 07AE                       i1l1423 0797  
                     i1l1441 05B7                       i1l1433 0594                       i1l1417 07BA  
                     i1l1425 07A3                       i1l1443 05C5                       i1l1435 0598  
                     i1l1427 0576                       i1l1419 0793                       i1l1445 05C6  
                     i1l1437 059C                       i1l1429 0588                       i1l1447 05CF  
                     i1l1439 05A5                       i1l1631 074E                       u113_20 074E  
                     i1l1449 05D5                       i1l1625 07E2                       i1l1641 06EB  
                     i1l1633 0753                       u113_21 074D                       i1l1651 0FEE  
                     i1l1627 07E6                       i1l1643 06F5                       i1l1635 0759  
                     i1l1661 069D                       i1l1653 0FF0                       i1l1645 06FD  
                     i1l1637 075D                       i1l1629 0749                       i1l1901 035D  
                     i1l1663 069E                       i1l1647 0FEA                       i1l1639 06EA  
                     i1l1655 0FBB                       i1l1903 0360                       u114_20 070B  
                     i1l1665 069F                       i1l1657 066E                       i1l1649 0FED  
                     u114_21 070A                       i1l1905 0363                       i1l1659 0672  
                     i1l1907 0371                       i1l1851 02B3                       i1l1861 02CB  
                     i1l1853 02B4                       i1l1871 02F4                       i1l1863 02DA  
                     i1l1855 02BA                       i1l1847 02AD                       u115_20 0680  
                     i1l1881 030E                       i1l1873 02F8                       i1l1865 02E2  
                     i1l1857 02BE                       i1l1849 02B1                       i1l1891 0337  
                     i1l1883 031D                       i1l1875 02FB                       i1l1867 02E8  
                     i1l1859 02C7                       u115_25 067B                       i1l1893 0340  
                     i1l1885 0320                       i1l1877 02FE                       i1l1869 02ED  
                     i1l1895 0344                       i1l1887 0327                       i1l1879 0305  
                     i1l1897 0353                       i1l1889 0330                       i1l1899 0356  
                     u141_20 02B1                       u141_21 02B0                       u142_20 02BA  
                     u142_21 02B9                       u143_20 02BE                       u143_21 02BD  
                     u144_20 02C7                       u144_21 02C6                       u145_20 02CB  
                     u145_21 02CA                       u146_20 02DA                       u146_21 02D9  
                     u146_25 02D6                       u147_20 02ED                       u147_21 02EC  
                     u148_20 02F4                       u148_21 02F3                       u190_27 07EC  
                     u191_27 07B5                       u187_27 0316                       u188_27 034C  
                     u189_27 079E                       _SSPADD 0093                       _TRISC3 043B  
                     _TRISC4 043C                       _SSPCON 0014                       _SSPBUF 0013  
             ?_Keyboard_init 0020                       ___wmul 06A1                    ??___lldiv 0046  
                     _memset 070C                 LCD_data@data 0040                       _teclas 0429  
             ?_LCD_setCursor 0041            __end_ofi1___lldiv 05DE                       saved_w 007E  
    __end_of__initialization 0020                    ?_LCD_data 0020                    ?_LCD_init 0020  
             __pcstackCOMMON 0000                  _Read_Keypad 037E               i1LCD_data@data 0022  
            i1_Keyboard_init 0FEA              i1_LCD_setCursor 0746        I2C_Slave_Init@address 003E  
                 __pbssBANK0 004C                   __pbssBANK1 00A0                 ??i1_LCD_data 0020  
              i1_LCD_command 07A7                   ??_LCD_data 003E                   ??_LCD_init 0041  
            ??_Keyboard_init 0000                      ISR@temp 003D                   __pmaintext 0023  
                    ?___wmul 003E                   _asciiValue 00B6                   __pintentry 0004  
            ??_LCD_setCursor 0000                      ?_memset 003E           __end_ofi1_LCD_data 07A7  
         i1_Prepare_LCD_Pins 0FBB                      _SSPCON2 0091                      _SSPSTAT 0094  
                 __stringtab 0419          ?i1_Prepare_LCD_Pins 0020               ?i1_LCD_command 0020  
__end_of_Prepare_Keypad_Pins 0FEA        i1LCD_setCursor@column 0023      __end_ofi1_Keyboard_init 0FF5  
                    ___lldiv 050E         ??i1_Prepare_LCD_Pins 0000     __end_of_Prepare_LCD_Pins 0FC3  
    __end_ofi1_LCD_setCursor 0762                      __ptext1 070C                      __ptext2 0496  
                    __ptext3 06A1                      __ptext4 037E                      __ptext5 0FBF  
                    __ptext6 0FE1                      __ptext7 072A                      __ptext8 06C8  
                    __ptext9 0762            i1_I2C_Master_Init 066E           ?i1_I2C_Master_Init 002E  
                    atoi@neg 0048                      main@key 00CF                      clrloop0 0FDA  
        ??i1_I2C_Master_Init 0032                    _LCD_clear 07D2         end_of_initialization 0020  
          _LCD_setCursor$302 0043                    _LCD_print 06C8                      memset@c 003E  
                    memset@n 0040                      memset@p 0043              ___lldiv@divisor 003E  
            ___lldiv@counter 004B              LCD_print@string 0041               _I2C_Slave_Init 07BE  
           I2C_Master_Init@c 00BA    __end_ofi1_I2C_Master_Init 06A1             ISR@receiveBuffer 004E  
                  _PORTAbits 0005                    _TRISAbits 0085                    i1___lldiv 0576  
            ??i1_LCD_command 0020                   ?_LCD_clear 0020                   ?_LCD_print 0041  
     __end_of_I2C_Slave_Init 07D2             ?i1_Keyboard_init 0020                 ?_Read_Keypad 0020  
             __end_of___wmul 06C8             ?i1_LCD_setCursor 0023               __end_of_memset 072A  
             __end_of_teclas 0439          start_initialization 0013                  __end_of_ISR 037E  
                 ?i1___lldiv 0020                ??_LCD_command 003E            ??_I2C_Master_Init 00BE  
          ??_I2C_Master_Wait 0000            ??_I2C_Master_Stop 0000              ?_I2C_Slave_Init 0020  
                   ??___wmul 0000                     ??_memset 0000                   memset@dest 0042  
           LCD_setCursor@row 0042      i1LCD_setCursor@position 0027                ??i1_LCD_clear 0023  
              ??i1_LCD_print 0000                    ___latbits 0001                __pcstackBANK0 0020  
              __pcstackBANK1 00BA         i1LCD_command@command 0022                  ??_LCD_clear 0041  
                ??_LCD_print 0000                    _charCount 00A2           i1I2C_Master_Init@c 002E  
           _I2C_Master_Start 0FC3             _I2C_Master_Write 0FD1          __end_of_LCD_command 0790  
                   ISR@index 004C                    _asciiMode 00A1        __end_of_Keyboard_init 1000  
                   ?___lldiv 003E                  _asciiDigits 00A0        __end_of_LCD_setCursor 0746  
          ?_Prepare_LCD_Pins 0020                    __pstrings 0419           ??_Prepare_LCD_Pins 0000  
             _cursorPosition 00A3                  ??i1___lldiv 0028          __end_ofi1_LCD_clear 07F2  
        __end_ofi1_LCD_print 070C            interrupt_function 0004               ___wmul@product 0042  
                   _LCD_data 0762                     _LCD_init 05DE                    clear_ram0 0FD9  
                __stringbase 0428                    main@i_290 00CD                    main@i_288 00C9  
                  main@i_289 00CB            ___wmul@multiplier 003E        LCD_setCursor@position 0045  
                _LCD_command 0779                     _i2c_role 00A4           i1LCD_setCursor@row 0024  
        i1_LCD_setCursor$302 0025           __end_of__stringtab 0429                  i1_LCD_clear 07E2  
            _I2C_Master_Init 062B              _I2C_Master_Wait 07F2              _I2C_Master_Stop 0FCA  
                i1_LCD_print 06EA                     __ptext10 05DE                     __ptext11 07D2  
                   __ptext20 050E                     __ptext12 0779                     __ptext21 02AD  
                   __ptext13 0FF5                     __ptext30 0576                     __ptext22 0FBB  
                   __ptext14 07BE                     __ptext23 0746                     __ptext15 0FD1  
                   __ptext24 06EA                     __ptext16 0FCA                     __ptext25 0790  
                   __ptext17 0FC3                     __ptext26 07E2                     __ptext18 07F2  
                   __ptext27 07A7                     __ptext19 062B                     __ptext28 0FEA  
                   __ptext29 066E        __end_ofi1_LCD_command 07BE             ??_I2C_Slave_Init 0000  
   __end_of_I2C_Master_Start 0FCA     __end_of_I2C_Master_Write 0FD9           LCD_command@command 0040  
                   intlevel1 0000                   i1_LCD_data 0790             ___lldiv@dividend 0042  
                  stringcode 0423          LCD_setCursor@column 0041      __end_of_I2C_Master_Init 066E  
    __end_of_I2C_Master_Wait 07FF      __end_of_I2C_Master_Stop 0FD1             ___lldiv@quotient 0047  
          I2C_Master_Write@d 003E                     stringdir 0423                     stringtab 0419  
        _Prepare_Keypad_Pins 0FE1                _displayString 00A5               Read_Keypad@col 0042  
             Read_Keypad@row 0040                   _SSPCONbits 0014  
